
simple_socket_server.elf:     file format elf32-littlenios2
simple_socket_server.elf
architecture: nios2, flags 0x00000112:
EXEC_P, HAS_SYMS, D_PAGED
start address 0x050801bc

Program Header:
    LOAD off    0x00001000 vaddr 0x05080000 paddr 0x05080000 align 2**12
         filesz 0x00000020 memsz 0x00000020 flags r-x
    LOAD off    0x00001020 vaddr 0x05080020 paddr 0x05080020 align 2**12
         filesz 0x0004f928 memsz 0x0004f928 flags r-x
    LOAD off    0x00050948 vaddr 0x050cf948 paddr 0x050d1964 align 2**12
         filesz 0x0000201c memsz 0x0000201c flags rw-
    LOAD off    0x00052980 vaddr 0x050d3980 paddr 0x050d3980 align 2**12
         filesz 0x00000000 memsz 0x0000ac44 flags rw-

Sections:
Idx Name          Size      VMA       LMA       File off  Algn
  0 .entry        00000020  05080000  05080000  00001000  2**5
                  CONTENTS, ALLOC, LOAD, READONLY, CODE
  1 .exceptions   0000019c  05080020  05080020  00001020  2**2
                  CONTENTS, ALLOC, LOAD, READONLY, CODE
  2 .text         0004979c  050801bc  050801bc  000011bc  2**2
                  CONTENTS, ALLOC, LOAD, READONLY, CODE
  3 .rodata       00005ff0  050c9958  050c9958  0004a958  2**2
                  CONTENTS, ALLOC, LOAD, READONLY, DATA
  4 .rwdata       0000201c  050cf948  050d1964  00050948  2**2
                  CONTENTS, ALLOC, LOAD, DATA, SMALL_DATA
  5 .bss          0000ac44  050d3980  050d3980  00052980  2**2
                  ALLOC, SMALL_DATA
  6 .comment      00000026  00000000  00000000  00052964  2**0
                  CONTENTS, READONLY
  7 .debug_aranges 00001a98  00000000  00000000  00052990  2**3
                  CONTENTS, READONLY, DEBUGGING
  8 .debug_pubnames 000059dc  00000000  00000000  00054428  2**0
                  CONTENTS, READONLY, DEBUGGING
  9 .debug_info   00080ded  00000000  00000000  00059e04  2**0
                  CONTENTS, READONLY, DEBUGGING
 10 .debug_abbrev 00011acd  00000000  00000000  000dabf1  2**0
                  CONTENTS, READONLY, DEBUGGING
 11 .debug_line   00041914  00000000  00000000  000ec6be  2**0
                  CONTENTS, READONLY, DEBUGGING
 12 .debug_frame  0000678c  00000000  00000000  0012dfd4  2**2
                  CONTENTS, READONLY, DEBUGGING
 13 .debug_str    00003a18  00000000  00000000  00134760  2**0
                  CONTENTS, READONLY, DEBUGGING
 14 .debug_loc    00013df7  00000000  00000000  00138178  2**0
                  CONTENTS, READONLY, DEBUGGING
 15 .debug_alt_sim_info 00000060  00000000  00000000  0014bf70  2**2
                  CONTENTS, READONLY, DEBUGGING
 16 .debug_ranges 00000940  00000000  00000000  0014bfd0  2**3
                  CONTENTS, READONLY, DEBUGGING
 17 .thread_model 00000006  00000000  00000000  001574a3  2**0
                  CONTENTS, READONLY
 18 .cpu          00000003  00000000  00000000  001574a9  2**0
                  CONTENTS, READONLY
 19 .qsys         00000001  00000000  00000000  001574ac  2**0
                  CONTENTS, READONLY
 20 .simulation_enabled 00000001  00000000  00000000  001574ad  2**0
                  CONTENTS, READONLY
 21 .sysid_hash   00000004  00000000  00000000  001574ae  2**0
                  CONTENTS, READONLY
 22 .sysid_base   00000004  00000000  00000000  001574b2  2**0
                  CONTENTS, READONLY
 23 .sysid_time   00000004  00000000  00000000  001574b6  2**0
                  CONTENTS, READONLY
 24 .stderr_dev   00000009  00000000  00000000  001574ba  2**0
                  CONTENTS, READONLY
 25 .stdin_dev    00000009  00000000  00000000  001574c3  2**0
                  CONTENTS, READONLY
 26 .stdout_dev   00000009  00000000  00000000  001574cc  2**0
                  CONTENTS, READONLY
 27 .sopc_system_name 00000008  00000000  00000000  001574d5  2**0
                  CONTENTS, READONLY
 28 .jdi          00004090  00000000  00000000  001574dd  2**0
                  CONTENTS, READONLY
SYMBOL TABLE:
05080000 l    d  .entry	00000000 .entry
05080020 l    d  .exceptions	00000000 .exceptions
050801bc l    d  .text	00000000 .text
050c9958 l    d  .rodata	00000000 .rodata
050cf948 l    d  .rwdata	00000000 .rwdata
050d3980 l    d  .bss	00000000 .bss
00000000 l    d  .comment	00000000 .comment
00000000 l    d  .debug_aranges	00000000 .debug_aranges
00000000 l    d  .debug_pubnames	00000000 .debug_pubnames
00000000 l    d  .debug_info	00000000 .debug_info
00000000 l    d  .debug_abbrev	00000000 .debug_abbrev
00000000 l    d  .debug_line	00000000 .debug_line
00000000 l    d  .debug_frame	00000000 .debug_frame
00000000 l    d  .debug_str	00000000 .debug_str
00000000 l    d  .debug_loc	00000000 .debug_loc
00000000 l    d  .debug_alt_sim_info	00000000 .debug_alt_sim_info
00000000 l    d  .debug_ranges	00000000 .debug_ranges
05080204 l       .text	00000000 alt_after_alt_main
00000000 l    df *ABS*	00000000 alt_irq_handler.c
00000000 l    df *ABS*	00000000 alt_error_handler.c
00000000 l    df *ABS*	00000000 iniche_init.c
00000000 l    df *ABS*	00000000 led.c
050cf960 l     O .rwdata	00000010 segments
05080f90 l     F .text	0000007c sevenseg_set_hex
00000000 l    df *ABS*	00000000 network_utilities.c
00000000 l    df *ABS*	00000000 simple_socket_server.c
050d3990 l     O .bss	00000004 SSSCommand.4583
050d3ba0 l     O .bss	000005f0 conn.4710
00000000 l    df *ABS*	00000000 ctype_.c
050cab11 l     O .rodata	00000180 _ctype_b
00000000 l    df *ABS*	00000000 fprintf.c
00000000 l    df *ABS*	00000000 fwrite.c
00000000 l    df *ABS*	00000000 getc.c
00000000 l    df *ABS*	00000000 impure.c
050cf970 l     O .rwdata	00000400 impure_data
00000000 l    df *ABS*	00000000 memcpy.c
00000000 l    df *ABS*	00000000 memmove.c
00000000 l    df *ABS*	00000000 memset.c
00000000 l    df *ABS*	00000000 perror.c
00000000 l    df *ABS*	00000000 printf.c
00000000 l    df *ABS*	00000000 putc.c
00000000 l    df *ABS*	00000000 putchar.c
00000000 l    df *ABS*	00000000 puts.c
00000000 l    df *ABS*	00000000 rget.c
00000000 l    df *ABS*	00000000 sprintf.c
00000000 l    df *ABS*	00000000 strchr.c
00000000 l    df *ABS*	00000000 strerror.c
00000000 l    df *ABS*	00000000 strlen.c
00000000 l    df *ABS*	00000000 u_strerr.c
00000000 l    df *ABS*	00000000 vfprintf.c
050833f0 l     F .text	00000058 __sprint_r
050cb4b2 l     O .rodata	00000010 blanks.3452
050cb4a2 l     O .rodata	00000010 zeroes.3453
00000000 l    df *ABS*	00000000 wbuf.c
00000000 l    df *ABS*	00000000 wsetup.c
00000000 l    df *ABS*	00000000 dtoa.c
050855a0 l     F .text	00000218 quorem
00000000 l    df *ABS*	00000000 fflush.c
00000000 l    df *ABS*	00000000 findfp.c
05086f9c l     F .text	00000058 std
050870a8 l     F .text	00000008 __fp_lock
050870b0 l     F .text	00000008 __fp_unlock
00000000 l    df *ABS*	00000000 fputc.c
00000000 l    df *ABS*	00000000 fputs.c
00000000 l    df *ABS*	00000000 mallocr.c
00000000 l    df *ABS*	00000000 fvwrite.c
00000000 l    df *ABS*	00000000 fwalk.c
00000000 l    df *ABS*	00000000 locale.c
050d1820 l     O .rwdata	00000004 charset
050cb4e4 l     O .rodata	00000030 lconv
00000000 l    df *ABS*	00000000 makebuf.c
00000000 l    df *ABS*	00000000 mallocr.c
00000000 l    df *ABS*	00000000 memchr.c
00000000 l    df *ABS*	00000000 mprec.c
050cb62c l     O .rodata	0000000c p05.2458
00000000 l    df *ABS*	00000000 mallocr.c
00000000 l    df *ABS*	00000000 refill.c
0508a02c l     F .text	0000001c lflush
00000000 l    df *ABS*	00000000 s_isinfd.c
00000000 l    df *ABS*	00000000 s_isnand.c
00000000 l    df *ABS*	00000000 sbrkr.c
00000000 l    df *ABS*	00000000 stdio.c
00000000 l    df *ABS*	00000000 strcmp.c
00000000 l    df *ABS*	00000000 writer.c
00000000 l    df *ABS*	00000000 mallocr.c
00000000 l    df *ABS*	00000000 closer.c
00000000 l    df *ABS*	00000000 fclose.c
00000000 l    df *ABS*	00000000 fstatr.c
00000000 l    df *ABS*	00000000 int_errno.c
00000000 l    df *ABS*	00000000 isattyr.c
00000000 l    df *ABS*	00000000 lseekr.c
00000000 l    df *ABS*	00000000 readr.c
00000000 l    df *ABS*	00000000 libgcc2.c
00000000 l    df *ABS*	00000000 libgcc2.c
00000000 l    df *ABS*	00000000 dp-bit.c
0508b350 l     F .text	00000410 _fpadd_parts
00000000 l    df *ABS*	00000000 dp-bit.c
00000000 l    df *ABS*	00000000 dp-bit.c
00000000 l    df *ABS*	00000000 dp-bit.c
00000000 l    df *ABS*	00000000 dp-bit.c
00000000 l    df *ABS*	00000000 dp-bit.c
00000000 l    df *ABS*	00000000 dp-bit.c
00000000 l    df *ABS*	00000000 dp-bit.c
00000000 l    df *ABS*	00000000 dp-bit.c
00000000 l    df *ABS*	00000000 dp-bit.c
00000000 l    df *ABS*	00000000 dp-bit.c
00000000 l    df *ABS*	00000000 dp-bit.c
00000000 l    df *ABS*	00000000 lib2-divmod.c
0508c46c l     F .text	0000007c udivmodsi4
00000000 l    df *ABS*	00000000 libgcc2.c
00000000 l    df *ABS*	00000000 libgcc2.c
00000000 l    df *ABS*	00000000 dp-bit.c
00000000 l    df *ABS*	00000000 dp-bit.c
00000000 l    df *ABS*	00000000 dp-bit.c
00000000 l    df *ABS*	00000000 alt_flash_dev.c
00000000 l    df *ABS*	00000000 alt_fstat.c
0508ccf0 l     F .text	00000060 alt_get_errno
00000000 l    df *ABS*	00000000 alt_isatty.c
0508ce10 l     F .text	00000060 alt_get_errno
00000000 l    df *ABS*	00000000 alt_load.c
0508cef0 l     F .text	0000006c alt_load_section
00000000 l    df *ABS*	00000000 alt_lseek.c
0508d04c l     F .text	00000060 alt_get_errno
00000000 l    df *ABS*	00000000 alt_main.c
00000000 l    df *ABS*	00000000 alt_sbrk.c
050d1834 l     O .rwdata	00000004 heap_end
00000000 l    df *ABS*	00000000 alt_env_lock.c
050d1838 l     O .rwdata	00000004 lockid
050d39c8 l     O .bss	00000004 locks
00000000 l    df *ABS*	00000000 alt_malloc_lock.c
050d183c l     O .rwdata	00000004 lockid
050d39d0 l     O .bss	00000004 locks
00000000 l    df *ABS*	00000000 os_core.c
0508ec08 l     F .text	00000044 OS_InitMisc
0508ec4c l     F .text	0000006c OS_InitRdyList
0508edb0 l     F .text	000000e0 OS_InitTCBList
0508eb2c l     F .text	000000dc OS_InitEventList
0508ecb8 l     F .text	0000007c OS_InitTaskIdle
0508ed34 l     F .text	0000007c OS_InitTaskStat
0508f024 l     F .text	00000070 OS_SchedNew
00000000 l    df *ABS*	00000000 os_dbg.c
00000000 l    df *ABS*	00000000 os_flag.c
05090f5c l     F .text	00000110 OS_FlagTaskRdy
05090cb4 l     F .text	000001c4 OS_FlagBlock
00000000 l    df *ABS*	00000000 os_mem.c
00000000 l    df *ABS*	00000000 os_q.c
00000000 l    df *ABS*	00000000 os_sem.c
00000000 l    df *ABS*	00000000 os_task.c
00000000 l    df *ABS*	00000000 os_time.c
00000000 l    df *ABS*	00000000 alt_sys_init.c
050d0184 l     O .rwdata	000000d8 ext_flash
050d025c l     O .rwdata	0000106c jtag_uart
050d12c8 l     O .rwdata	00000030 sgdma_rx
050d12f8 l     O .rwdata	00000030 sgdma_tx
05095a94 l     F .text	00000038 alt_dev_reg
00000000 l    df *ABS*	00000000 altera_avalon_cfi_flash.c
05095b68 l     F .text	00000038 alt_flash_device_register
00000000 l    df *ABS*	00000000 altera_avalon_cfi_flash_table.c
05096958 l     F .text	0000007c alt_read_16bit_query_entry
00000000 l    df *ABS*	00000000 altera_avalon_jtag_uart_fd.c
00000000 l    df *ABS*	00000000 altera_avalon_jtag_uart_init.c
05097a5c l     F .text	000002c4 altera_avalon_jtag_uart_irq
05097d20 l     F .text	00000114 altera_avalon_jtag_uart_timeout
00000000 l    df *ABS*	00000000 altera_avalon_jtag_uart_ioctl.c
00000000 l    df *ABS*	00000000 altera_avalon_jtag_uart_read.c
00000000 l    df *ABS*	00000000 altera_avalon_jtag_uart_write.c
00000000 l    df *ABS*	00000000 altera_avalon_sgdma.c
05098c08 l     F .text	00000060 alt_get_errno
050991b0 l     F .text	000000c0 alt_avalon_sgdma_irq
00000000 l    df *ABS*	00000000 altera_avalon_timer_sc.c
0509931c l     F .text	00000070 alt_avalon_timer_sc_irq
00000000 l    df *ABS*	00000000 ins_tse_mac.c
00000000 l    df *ABS*	00000000 alt_iniche_close.c
00000000 l    df *ABS*	00000000 alt_iniche_dev.c
00000000 l    df *ABS*	00000000 alt_iniche_read.c
00000000 l    df *ABS*	00000000 alt_iniche_write.c
00000000 l    df *ABS*	00000000 ipnet.c
00000000 l    df *ABS*	00000000 ipstart.c
050d3a3c l     O .bss	00000004 nclosers
050d41b8 l     O .bss	0000003c closers
00000000 l    df *ABS*	00000000 igmp_cmn.c
00000000 l    df *ABS*	00000000 bsdsock.c
00000000 l    df *ABS*	00000000 cksum.c
050d18cc l     O .rwdata	00000004 cksum_select
00000000 l    df *ABS*	00000000 in_utils.c
050d41f4 l     O .bss	00000018 tistring
00000000 l    df *ABS*	00000000 netmain.c
00000000 l    df *ABS*	00000000 tk_crnos.c
00000000 l    df *ABS*	00000000 dhcpclnt.c
050a12ac l     F .text	000000cc dh_getlong
00000000 l    df *ABS*	00000000 dhcputil.c
00000000 l    df *ABS*	00000000 pktalloc.c
00000000 l    df *ABS*	00000000 q.c
00000000 l    df *ABS*	00000000 udp_open.c
050a2fd8 l       .text	00000000 done
050a2e68 l       .text	00000000 asm1
050a2f94 l       .text	00000000 loop0
050a2e90 l       .text	00000000 loop
050a2fb0 l       .text	00000000 fold
00000000 l    df *ABS*	00000000 brdutils.c
050d3a9c l     O .bss	00000004 kbd_init.3746
050d3aa8 l     O .bss	00000004 cpu_statusreg
00000000 l    df *ABS*	00000000 osportco.c
00000000 l    df *ABS*	00000000 targnios.c
00000000 l    df *ABS*	00000000 nptcp.c
050d3adc l     O .bss	00000004 in_tcptick
00000000 l    df *ABS*	00000000 rawsock.c
00000000 l    df *ABS*	00000000 sockcall.c
050a76dc l     F .text	00000098 sockargs
050a6918 l     F .text	000001fc t_getname
00000000 l    df *ABS*	00000000 socket.c
00000000 l    df *ABS*	00000000 socket2.c
00000000 l    df *ABS*	00000000 soselect.c
00000000 l    df *ABS*	00000000 tcp_in.c
00000000 l    df *ABS*	00000000 tcp_out.c
050afa28 l     F .text	000000e8 bld_options
00000000 l    df *ABS*	00000000 tcp_subr.c
00000000 l    df *ABS*	00000000 tcp_timr.c
00000000 l    df *ABS*	00000000 tcp_usr.c
00000000 l    df *ABS*	00000000 tcpport.c
00000000 l    df *ABS*	00000000 udpsock.c
00000000 l    df *ABS*	00000000 alt_alarm_start.c
00000000 l    df *ABS*	00000000 alt_close.c
050b2638 l     F .text	00000060 alt_get_errno
00000000 l    df *ABS*	00000000 alt_dcache_flush.c
00000000 l    df *ABS*	00000000 alt_dcache_flush_all.c
00000000 l    df *ABS*	00000000 alt_dev.c
050b2754 l     F .text	0000002c alt_dev_null_write
00000000 l    df *ABS*	00000000 alt_dev_llist_insert.c
050b2834 l     F .text	00000060 alt_get_errno
00000000 l    df *ABS*	00000000 alt_do_ctors.c
00000000 l    df *ABS*	00000000 alt_do_dtors.c
00000000 l    df *ABS*	00000000 alt_errno.c
00000000 l    df *ABS*	00000000 alt_find_dev.c
00000000 l    df *ABS*	00000000 alt_icache_flush_all.c
00000000 l    df *ABS*	00000000 alt_iic.c
00000000 l    df *ABS*	00000000 alt_iic_isr_register.c
00000000 l    df *ABS*	00000000 alt_io_redirect.c
050b2cec l     F .text	000000c4 alt_open_fd
00000000 l    df *ABS*	00000000 alt_irq_vars.c
00000000 l    df *ABS*	00000000 alt_open.c
050b2e28 l     F .text	000000dc alt_file_locked
050b308c l     F .text	00000060 alt_get_errno
00000000 l    df *ABS*	00000000 alt_read.c
050b320c l     F .text	00000060 alt_get_errno
00000000 l    df *ABS*	00000000 alt_release_fd.c
00000000 l    df *ABS*	00000000 alt_remap_cached.c
00000000 l    df *ABS*	00000000 alt_remap_uncached.c
00000000 l    df *ABS*	00000000 alt_tick.c
00000000 l    df *ABS*	00000000 alt_uncached_malloc.c
00000000 l    df *ABS*	00000000 alt_write.c
050b3670 l     F .text	00000060 alt_get_errno
00000000 l    df *ABS*	00000000 altera_nios2_qsys_irq.c
00000040 l       *ABS*	00000000 OSCtxSw_SWITCH_PC
00000000 l    df *ABS*	00000000 os_cpu_c.c
00000014 l       *ABS*	00000000 OSTCBNext_OFFSET
00000032 l       *ABS*	00000000 OSTCBPrio_OFFSET
00000000 l       *ABS*	00000000 OSTCBStkPtr_OFFSET
00000000 l    df *ABS*	00000000 altera_avalon_cfi_flash_amd.c
050b3f88 l     F .text	000000bc alt_write_word_amd
050b3e64 l     F .text	00000124 alt_wait_for_command_to_complete_amd
00000000 l    df *ABS*	00000000 altera_avalon_cfi_flash_intel.c
050b423c l     F .text	0000018c alt_unlock_block_intel
050b43c8 l     F .text	000000dc alt_write_word_intel
00000000 l    df *ABS*	00000000 altera_avalon_tse.c
050d3b12 l     O .bss	00000001 tse_system_count.4487
050d3b13 l     O .bss	00000001 is_init.4851
00000000 l    df *ABS*	00000000 altera_avalon_tse_system_info.c
00000000 l    df *ABS*	00000000 allports.c
050d3b18 l     O .bss	00000004 inside_pktdemux
00000000 l    df *ABS*	00000000 timeouts.c
050b9c9c l     F .text	00000198 check_interval_timers
050d3b24 l     O .bss	00000004 numtimers
00000000 l    df *ABS*	00000000 tk_misc.c
00000000 l    df *ABS*	00000000 alt_iniche_fcntl.c
00000000 l    df *ABS*	00000000 et_arp.c
050d3b28 l     O .bss	00000004 arp_timer
050d3b40 l     O .bss	00000004 cachetime
00000000 l    df *ABS*	00000000 iface.c
00000000 l    df *ABS*	00000000 ip.c
050d194c l     O .rwdata	00000004 uid
00000000 l    df *ABS*	00000000 ip_reasm.c
00000000 l    df *ABS*	00000000 ipdemux.c
00000000 l    df *ABS*	00000000 ipmc.c
00000000 l    df *ABS*	00000000 ipport.c
00000000 l    df *ABS*	00000000 ipraw.c
00000000 l    df *ABS*	00000000 iproute.c
00000000 l    df *ABS*	00000000 udp.c
050d3b70 l     O .bss	00000002 usocket
00000000 l    df *ABS*	00000000 igmp.c
00000000 l    df *ABS*	00000000 igmp2.c
00000000 l    df *ABS*	00000000 ipopt.c
00000000 l    df *ABS*	00000000 u_mctest.c
050d1954 l     O .rwdata	00000004 iCounter.4504
00000000 l    df *ABS*	00000000 dhcsetup.c
00000000 l    df *ABS*	00000000 memdev.c
00000000 l    df *ABS*	00000000 parseip.c
050d420c l     O .bss	0000001e nearBuf.4182
00000000 l    df *ABS*	00000000 tcpcksum.c
00000000 l    df *ABS*	00000000 in_pcb.c
00000000 l    df *ABS*	00000000 vfsfiles.c
00000000 l    df *ABS*	00000000 vfsport.c
00000000 l    df *ABS*	00000000 alt_fcntl.c
050c7670 l     F .text	00000060 alt_get_errno
00000000 l    df *ABS*	00000000 alt_find_file.c
00000000 l    df *ABS*	00000000 alt_get_fd.c
00000000 l    df *ABS*	00000000 alt_icache_flush.c
00000000 l    df *ABS*	00000000 alt_usleep.c
00000000 l    df *ABS*	00000000 icmp.c
050d17f8 l     O .rwdata	00000018 dsts
00000000 l    df *ABS*	00000000 alt_busy_sleep.c
00000000 l    df *ABS*	00000000 atexit.c
00000000 l    df *ABS*	00000000 atoi.c
00000000 l    df *ABS*	00000000 calloc.c
00000000 l    df *ABS*	00000000 exit.c
00000000 l    df *ABS*	00000000 malloc.c
00000000 l    df *ABS*	00000000 memcmp.c
00000000 l    df *ABS*	00000000 strcpy.c
00000000 l    df *ABS*	00000000 strncmp.c
00000000 l    df *ABS*	00000000 strncpy.c
00000000 l    df *ABS*	00000000 strtol.c
00000000 l    df *ABS*	00000000 vprintf.c
00000000 l    df *ABS*	00000000 vsprintf.c
00000000 l    df *ABS*	00000000 __atexit.c
00000000 l    df *ABS*	00000000 __call_atexit.c
050c96c8 l     F .text	00000004 register_fini
00000000 l    df *ABS*	00000000 alt_exit.c
050c987c l     F .text	00000040 alt_sim_halt
05082a14 g     F .text	0000001c putchar
050ddf10 g     O .bss	00000014 soq
05088c8c g     F .text	00000094 _mprec_log10
050b5778 g     F .text	000000e0 alt_tse_get_mac_info
050d188a g     O .rwdata	00000002 OSTaskNameSize
05088d78 g     F .text	00000088 __any_on
0508a664 g     F .text	00000070 _isatty_r
050cb604 g     O .rodata	00000028 __mprec_tinytens
050bbb88 g     F .text	00000780 ip_write_internal
0508d0ac g     F .text	000000c8 alt_main
050c904c g     F .text	0000008c strcpy
050a272c g     F .text	000000ac pk_free
05082a38 g     F .text	000000a0 _puts_r
05096418 g     F .text	00000048 alt_read_query_entry_32bit
050de0bc g     O .bss	00000100 alt_irq
050d1698 g     O .rwdata	00000009 rtp_priority
0508a6d4 g     F .text	00000078 _lseek_r
050c8a5c g     F .text	00000334 icmp_timex
050a40b8 g     F .text	00000044 m_freem
050c6fd4 g     F .text	00000048 vgetc
050a3154 g     F .text	0000001c clock_c
050d3af4 g     O .bss	00000004 tcp_optionbuf
050bb650 g     F .text	00000084 if_getbynum
05091850 g     F .text	000000d0 OS_MemInit
050d3a94 g     O .bss	00000004 dsc_rlyerrs
050d3a84 g     O .bss	00000004 dsc_releases
05095ba0 g     F .text	000002c0 alt_flash_cfi_write
0509ee3c g     F .text	00000074 TK_OSTaskQuery
050a2e48 g       .text	00000000 asm_cksum
050b9674 g     F .text	00000100 marvell_cfg_rgmii
050d1964 g       *ABS*	00000000 __flash_rwdata_start
050957a0 g     F .text	00000064 OSTimeSet
050c6eb4 g     F .text	00000120 vgetc_locked
050a3994 g     F .text	00000020 post_task_setup
050bf580 g     F .text	00000360 ipr_stats
050b1394 g     F .text	00000134 tcp_attach
050d18dc g     O .rwdata	00000004 reqlist_len
050a5564 g     F .text	00000084 tcp_tick
0509e008 g     F .text	00000074 print_ipad
0509ed38 g     F .text	00000104 tcp_wakeup
0508be60 g     F .text	00000088 __eqdf2
050d3988 g     O .bss	00000004 last_flash_sector_offset
050d3a40 g     O .bss	00000004 igmp_timers_are_running
05080ea4 g     F .text	000000ec led_bit_toggle
050ae29c g     F .text	0000012c tcp_pulloutofband
050b6cf4 g     F .text	000001f0 alt_tse_phy_print_profile
0508d784 g     F .text	000006b4 OSEventPendMulti
050de5c4 g       *ABS*	00000000 __alt_heap_start
050b3ad0 g     F .text	00000020 OSTaskCreateHook
050b93e4 g     F .text	000000a8 marvell_phy_cfg
050a1f18 g     F .text	00000074 dhc_ifacedone
050bf934 g     F .text	00000400 ip_rcv
050c6c04 g     F .text	0000017c vfseek
050aa0fc g     F .text	00000120 soqremque
050c1784 g     F .text	00000858 udpdemux
0509aa90 g     F .text	00000104 tse_mac_close
050827b0 g     F .text	00000044 printf
050d3b44 g     O .bss	00000004 rt_mib
050d1862 g     O .rwdata	00000002 OSMboxEn
050a1e28 g     F .text	00000060 dhc_state_init
050c9570 g     F .text	00000024 vsprintf
05098674 g     F .text	00000124 alt_avalon_sgdma_do_sync_transfer
0508de8c g     F .text	0000007c OSIntEnter
0508a130 g     F .text	00000068 __sseek
05087004 g     F .text	000000a4 __sinit
050c08d8 g     F .text	00000118 in_delmulti
05085318 g     F .text	00000130 __swbuf_r
050d3b5c g     O .bss	00000004 so_evtmap_create
050d1872 g     O .rwdata	00000002 OSQEn
050c5184 g     F .text	00000094 in_pcballoc
050d18f8 g     O .rwdata	00000002 socket_defaults
05087e28 g     F .text	00000084 _setlocale_r
050ba47c g     F .text	00000498 send_arp
05087104 g     F .text	00000068 __sfmoreglue
050c5c70 g     F .text	00000368 vfopen_locked
050d3994 g     O .bss	00000004 SSSLEDCommandQ
0508d440 g     F .text	000000d0 __malloc_unlock
050b3b2c g     F .text	0000001c OSTaskStatHook
050b9b80 g     F .text	00000058 prep_modules
0509d540 g     F .text	000001b8 bsd_i_sockoptlen
050d39d8 g     O .bss	00000001 OSLockNesting
050d18d4 g     O .rwdata	00000004 xids
05082d00 g     F .text	00000674 strerror
050b59dc g     F .text	00000e18 getPHYSpeed
050c61d0 g     F .text	00000040 vfclose
050ddfb0 g     O .bss	0000002c tcb
050d18b0 g     O .rwdata	00000002 OSDataSize
050b32cc g     F .text	00000038 alt_remap_cached
050d39d9 g     O .bss	00000001 OSRunning
050bb384 g     F .text	000002cc grat_arp
050812c0 g     F .text	0000006c get_ip_addr
050c4b9c g     F .text	000000ac inet_pton
050bb7b4 g     F .text	0000009c reg_type
050ddab4 g     O .bss	000000f0 dhc_states
0509c348 g     F .text	0000019c igmp_fasttimo
050c6394 g     F .text	0000005c vunlink_flag_open_files
050a1bd0 g     F .text	00000088 dhc_halt
05098dc8 g     F .text	000003e8 alt_avalon_sgdma_construct_descriptor_burst
050d3a78 g     O .bss	00000004 dsc_acks
050ddfdc g     O .bss	000000e0 tcpstat
050bee30 g     F .text	0000035c ip_reasm_copy_queued_fragments_into_reassy_buffer
050a4648 g     F .text	000000a8 dtom
050af92c g     F .text	000000fc tcp_setpersist
050a6cf0 g     F .text	000001a4 t_getsockopt
050825b8 g     F .text	000000e0 memmove
050d3a88 g     O .bss	00000004 dsc_naks
050a4aec g     F .text	000005f8 ip_output
050b3b70 g     F .text	0000001c OSInitHookBegin
050c8d90 g     F .text	00000054 icmp_du
050d18d0 g     O .rwdata	00000004 num_net_tasks
050d3b80 g     O .bss	00000004 vfiles
050d18a8 g     O .rwdata	00000002 OSTmrSize
050c4298 g     F .text	00000104 dhc_main_ipset
050870f4 g     F .text	00000010 _cleanup
050bdf28 g     F .text	000002e0 ip_reasm_process_first_fragment
05088e00 g     F .text	000000bc _Balloc
0508169c g     F .text	0000016c get_board_mac_addr
050d39dc g     O .bss	00000004 OSIdleCtr
050d3998 g     O .bss	00000004 SSSLEDLightshowSem
050b86a8 g     F .text	00000194 alt_tse_phy_set_adv_1000
050d1934 g     O .rwdata	00000001 max_mac_system
050c31b0 g     F .text	000005f0 ip_setmoptions
050b49dc g     F .text	00000a14 alt_tse_system_add_sys
0508bf70 g     F .text	00000088 __gtdf2
050c465c g     F .text	0000002c md_fseek
050b379c g       .text	00000000 OSStartTsk
00000000  w      *UND*	00000000 __errno
0508f370 g     F .text	000002e0 OS_TCBInit
050be208 g     F .text	000000a0 ip_reassm
050a1c58 g     F .text	000001d0 dhc_reclaim
050965a4 g     F .text	00000048 alt_write_flash_command_32bit_device_16bit_mode
050de3bc g     O .bss	00000010 udp_mib
05080000 g     F .entry	0000001c __reset
050a7528 g     F .text	000000e4 t_shutdown
05081f1c g     F .text	000001ec sss_handle_receive
050a6f84 g     F .text	00000150 t_recvfrom
050d18ae g     O .rwdata	00000002 OSTmrWheelTblSize
050c3994 g     F .text	0000067c u_mctest_run
050988dc g     F .text	00000070 alt_avalon_sgdma_construct_stream_to_mem_desc_burst
050c0a60 g     F .text	00000094 prep_ifaces
05080020 g       *ABS*	00000000 __flash_exceptions_start
050d3a5c g     O .bss	00000001 to_netmain
050a2398 g     F .text	000000dc pk_alloc
050d184e g     O .rwdata	00000002 OSEventSize
05080ac4 g     F .text	000002ec alt_SSSErrorHandler
050d39e0 g     O .bss	00000001 OSPrioHighRdy
0508a5f0 g     F .text	00000074 _fstat_r
050d1560 g     O .rwdata	00000120 tse_mac_device
0509eab0 g     F .text	0000004c tk_nettick
050b3af0 g     F .text	00000020 OSTaskDelHook
050960bc g     F .text	000002d8 alt_flash_program_block
050d39b8 g     O .bss	00000004 errno
05082b38 g     F .text	00000014 __srget
050ab428 g     F .text	000000cc in_pcbnotify
050b377c g       .text	00000000 OSStartHighRdy
050ddba4 g     O .bss	00000014 lilfreeq
05080208 g     F .text	00000624 alt_uCOSIIErrorHandler
050c0b1c g     F .text	00000028 evtmap_setup
05093f64 g     F .text	00000200 OSTaskCreateExt
050d3a60 g     O .bss	00000004 tcp_sleep_timeout
050aab28 g     F .text	000001d0 sbdrop
050d3b58 g     O .bss	00000004 net_system_exit
050de3cc g     O .bss	00000068 icmp_mib
050b8f00 g     F .text	000004e4 alt_tse_phy_set_common_speed
050b0480 g     F .text	00000078 tcp_getseq
050c0f2c g     F .text	000000cc ip_raw_alloc
050907d0 g     F .text	00000068 OSFlagPendGetFlagsRdy
050d188e g     O .rwdata	00000002 OSTaskStatStkSize
050de1bc g     O .bss	00000010 pmac_groups
050a02f4 g     F .text	00000b3c dhc_request
050a87b4 g     F .text	000007e4 soreceive
0508f7dc g     F .text	00000334 OSFlagAccept
05091f88 g     F .text	000000c8 OSQFlush
05091920 g     F .text	00000154 OSQAccept
050d39c0 g     O .bss	00000004 alt_argv
050d9810 g       *ABS*	00000000 _gp
050bf8e0 g     F .text	00000054 ip_reasm_send_icmp_timex
050c7974 g     F .text	00000164 usleep
050c6210 g     F .text	00000048 vfflush
050ddeb8 g     O .bss	00000040 resid_semaphore
0509dec0 g     F .text	00000148 hexdump
050bdde0 g     F .text	000000a8 ip_reasm_incr_mem_useage
050a39ec g     F .text	00000034 calloc2
0509c9f8 g     F .text	0000007c igmp_leavegroup
05093d90 g     F .text	000001d4 OSTaskCreate
0509381c g     F .text	00000574 OSTaskChangePrio
050d39d4 g     O .bss	00000004 alt_heapsem
050b02cc g     F .text	000000e8 tcp_close
0508f650 g     F .text	0000018c OSDebugInit
05094164 g     F .text	0000040c OSTaskDel
050c7430 g     F .text	0000006c vferror
050b34ec g     F .text	00000064 alt_uncached_malloc
050b44d0 g     F .text	00000060 tse_mac_initTransInfo2
050c2494 g     F .text	000000c0 udp_alloc
050d13e0 g     O .rwdata	00000180 alt_fd_list
050da2a4 g     O .bss	00000370 OSFlagTbl
050d3ae0 g     O .bss	00000008 mbstat
05082488 g     F .text	00000090 _getc_r
050823f0 g     F .text	00000098 getc
05082a30 g     F .text	00000008 _putchar_r
0508e908 g     F .text	000000b8 OS_EventTaskRemove
050c2da0 g     F .text	00000158 igmpv2_chk_set_timer
0509eafc g     F .text	0000002c TK_OSTimeDly
050b295c g     F .text	00000094 alt_find_dev
05082518 g     F .text	000000a0 memcpy
050b4758 g     F .text	00000058 tse_mac_setMIImode
050d3a90 g     O .bss	00000004 dsc_rebind
050ba080 g     F .text	00000080 task_stats
050a6014 g     F .text	0000004c DOMAIN_CHECK
050a50e4 g     F .text	00000040 in_broadcast
050d1878 g     O .rwdata	00000002 OSRdyTblSize
050b67f4 g     F .text	00000048 alt_tse_phy_rd_mdio_addr
050d3b7c g     O .bss	00000004 vfsystems
050c23c4 g     F .text	000000d0 udp_socket
050d3a30 g     O .bss	00000004 MaxMtu
050ab0bc g     F .text	00000158 sock_selscan
0509941c g     F .text	0000015c triple_speed_ethernet_init
050870e8 g     F .text	0000000c _cleanup_r
0508c108 g     F .text	000000f8 __floatsidf
050bdb8c g     F .text	000000d0 ip_reasm_match_frag_with_ire
050aa26c g     F .text	00000050 socantrcvmore
050b4530 g     F .text	000000f0 tse_mac_sTxWrite
05081d78 g     F .text	000001a4 sss_exec_command
0508279c g     F .text	00000014 perror
050b2db0 g     F .text	00000078 alt_io_redirect
0508c080 g     F .text	00000088 __ltdf2
050d3abc g     O .bss	00000004 netq_intmask
050c4b2c g     F .text	00000070 hextoa
050c9958 g       *ABS*	00000000 __DTOR_END__
050a7300 g     F .text	00000228 t_send
050b253c g     F .text	000000fc alt_close
050d3ae8 g     O .bss	00000002 select_wait
05082ad8 g     F .text	00000014 puts
0509e5d4 g     F .text	00000044 std_out
050dd5a8 g     O .bss	00000030 tse_iniche_dev_driver_data
050c701c g     F .text	00000138 vfslookup_locked
050a7f9c g     F .text	0000009c soaccept
0508d510 g     F .text	00000130 OSEventNameGet
050d185c g     O .rwdata	00000002 OSFlagMax
050ddf24 g     O .bss	0000003c tcpmib
050a7774 g     F .text	0000009c t_errno
050c0b44 g     F .text	000000f0 ip_raw_open
050a1194 g     F .text	00000118 dhc_decline
05088bdc g     F .text	000000b0 __ratio
0508df08 g     F .text	00000100 OSIntExit
050d1950 g     O .rwdata	00000004 ipRoutes
050c633c g     F .text	00000058 vfeof
050b0798 g     F .text	0000005c tcp_canceltimers
0509faa4 g     F .text	0000021c dhc_buildheader
050d1896 g     O .rwdata	00000002 OSTCBSize
050989c0 g     F .text	00000084 alt_avalon_sgdma_construct_mem_to_stream_desc_burst
050d39e1 g     O .bss	00000001 OSPrioCur
05097f9c g     F .text	000002c0 altera_avalon_jtag_uart_read
050c8fc4 g     F .text	00000014 malloc
050d3b78 g     O .bss	00000004 inpcb_cachemiss
050827f4 g     F .text	00000034 _printf_r
050c4d34 g     F .text	000000c4 inet46_addr
050d3b74 g     O .bss	00000004 inpcb_cachehits
0508c5a8 g     F .text	00000008 __udivsi3
050d13a0 g     O .rwdata	0000000b tcp_outflags
050dd5d8 g     O .bss	00000130 tse
0508cd50 g     F .text	000000c0 isatty
050b53f0 g     F .text	00000178 alt_tse_sys_enable_mdio_sharing
050d187c g     O .rwdata	00000002 OSStkWidth
050cb514 g     O .rodata	000000c8 __mprec_tens
050c5acc g     F .text	0000007c vf_alloc_and_link_vop
050d1870 g     O .rwdata	00000002 OSPtrSize
050d3b48 g     O .bss	00000004 ipr_curr_mem
0509bfd4 g     F .text	0000006c exit_hook
050b56ec g     F .text	0000008c alt_tse_get_mac_info_index
050d3a44 g     O .bss	00000004 igmp_cticks
050d3ad0 g     O .bss	00000004 mheap_sem_ptr
050ae64c g     F .text	00000048 ip4_tcpmss
05087e04 g     F .text	00000008 __locale_charset
050d1850 g     O .rwdata	00000002 OSEventTblSize
050de340 g     O .bss	00000014 netlist
050a8f98 g     F .text	000000a8 soshutdown
050b36f0 g       .text	00000000 OSCtxSw
050b9b10 g     F .text	0000004c packet_check
050a0e30 g     F .text	00000280 dhc_setip
050c78e4 g     F .text	00000090 alt_icache_flush
050ddf60 g     O .bss	00000014 mbufq
050a7f4c g     F .text	00000050 soabort
050d39ac g     O .bss	00000004 __malloc_top_pad
050d39e4 g     O .bss	00000004 OSTCBList
050a2a1c g     F .text	00000110 qdel
050b9978 g     F .text	0000014c station_state
050c1094 g     F .text	00000184 rt_lookup
050d3b00 g     O .bss	00000004 alt_fd_list_lock
050d181c g     O .rwdata	00000004 __mb_cur_max
0509ca74 g     F .text	0000035c igmp_validate
05087e0c g     F .text	0000000c _localeconv_r
0509bcf0 g     F .text	000002e4 ip_startup
050a6350 g     F .text	00000298 t_accept
050a9cec g     F .text	0000008c soisdisconnecting
050894f8 g     F .text	0000003c __i2b
050877e8 g     F .text	0000049c __sfvwrite_r
05098ae8 g     F .text	00000058 alt_avalon_sgdma_stop
0509b6a8 g     F .text	000003d4 pktdemux
050da614 g     O .bss	00000c30 OSMemTbl
050d39e8 g     O .bss	00000001 OSTickStepState
050b6890 g     F .text	00000128 alt_tse_phy_wr_mdio_reg
050a300c g     F .text	000000ac kbhit
050a6b14 g     F .text	000001dc t_setsockopt
0508a0b8 g     F .text	00000070 _sbrk_r
050b4044 g     F .text	00000084 alt_program_intel
050d1680 g     O .rwdata	00000018 icmpdu_types
050b6ee4 g     F .text	0000070c alt_tse_mac_group_init
050c63f0 g     F .text	00000220 vunlink
050997d0 g     F .text	00000ae8 tse_mac_init
050d1874 g     O .rwdata	00000002 OSQMax
0509dd00 g     F .text	000000b0 ccksum
050c5b48 g     F .text	000000d8 vf_alloc_buffer
050d3b6c g     O .bss	00000004 cachedRoute
050d18e0 g     O .rwdata	00000004 lilbufs
050db244 g     O .bss	00000800 OSTaskStatStk
050c4688 g     F .text	00000024 md_ftell
0509ddb0 g     F .text	00000068 cksum
05091438 g     F .text	0000010c OSMemNameGet
050a7b28 g     F .text	00000130 sofree
050d3a38 g     O .bss	00000004 ifNumber
050d1854 g     O .rwdata	00000002 OSFlagEn
0508a74c g     F .text	00000078 _read_r
050d189a g     O .rwdata	00000002 OSTimeTickHookEn
050b2698 g     F .text	00000078 alt_dcache_flush
0509106c g     F .text	000000ac OS_FlagUnlink
050924ec g     F .text	00000180 OSQPost
050cfd70 g     O .rwdata	0000000c __lc_ctype
050d1920 g     O .rwdata	00000004 alt_max_fd
05096394 g     F .text	00000040 alt_read_query_entry_8bit
0508eee4 g     F .text	0000006c OS_MemCopy
050d18e8 g     O .rwdata	00000004 bigbufs
050b14c8 g     F .text	000000d4 tcp_disconnect
0508ef50 g     F .text	000000d4 OS_Sched
0508c94c g     F .text	00000138 __unpack_d
0508a4cc g     F .text	00000110 _fclose_r
05091334 g     F .text	00000104 OSMemGet
05094898 g     F .text	000001c4 OSTaskNameSet
050b40c8 g     F .text	00000174 alt_erase_block_intel
05086f68 g     F .text	00000034 fflush
050d39b0 g     O .bss	00000004 __malloc_max_sbrked_mem
050d39ec g     O .bss	00000004 OSCtxSwCtr
050dda2c g     O .bss	00000064 igmpstats
050b3b48 g     F .text	00000028 OSTimeTickHook
050a01f0 g     F .text	00000104 dhc_rx_offer
0509d6f8 g     F .text	00000120 bsd_getsockopt
050d185e g     O .rwdata	00000002 OSFlagNameSize
050de3a4 g     O .bss	00000018 ire_stats
050810a8 g     F .text	000001e4 LEDManagementTask
050b1738 g     F .text	000001b8 udp_soinput
050a296c g     F .text	000000b0 putq
0508e9c0 g     F .text	00000104 OS_EventTaskRemoveMulti
050d3a58 g     O .bss	00000004 iniche_net_ready
0508b7e0 g     F .text	00000074 __adddf3
0508e7b4 g     F .text	00000154 OS_EventTaskWaitMulti
050c73e8 g     F .text	00000048 isvfile
050a9140 g     F .text	000004c0 sosetopt
0509e934 g     F .text	000000f4 netmain
050ae694 g     F .text	0000011c tcp_mss
05088abc g     F .text	00000120 __b2d
050c47a8 g     F .text	0000031c parse_ipad
050c5aac g     F .text	00000020 get_vfopen_error
050d1876 g     O .rwdata	00000002 OSQSize
0508ada0 g     F .text	000005b0 __umoddi3
0508cf5c g     F .text	000000f0 lseek
050b9bd8 g     F .text	000000c4 inet_timer
050930c8 g     F .text	0000027c OSSemPend
050b6a7c g     F .text	00000278 alt_tse_phy_add_profile_default
050b8168 g     F .text	00000540 alt_tse_phy_get_cap
05081b28 g     F .text	00000190 sss_send_menu
050d1818 g     O .rwdata	00000004 _global_impure_ptr
0509e26c g     F .text	00000164 print_eth
050c5fd8 g     F .text	00000050 vfopen
050b30ec g     F .text	00000120 alt_read
05089874 g     F .text	000005f4 _realloc_r
0508082c g     F .text	00000298 alt_NetworkErrorHandler
050d1860 g     O .rwdata	00000002 OSLowestPrio
050de5c4 g       *ABS*	00000000 __bss_end
050b2bf4 g     F .text	000000f8 alt_iic_isr_register
05098538 g     F .text	0000013c alt_avalon_sgdma_do_async_transfer
050a3f84 g     F .text	00000134 m_free
050b3bc4 g     F .text	00000020 OSTCBInitHook
0509aa50 g     F .text	00000040 tse_mac_stats
050a2474 g     F .text	000002b8 pk_validate
050d18a6 g     O .rwdata	00000002 OSTmrCfgTicksPerSec
050b33dc g     F .text	00000110 alt_tick
050c5828 g     F .text	0000025c in_pcblookup
050a203c g     F .text	000000cc find_opt
0508a7c4 g     F .text	000005dc __udivdi3
050a3ddc g     F .text	000001a8 m_getnbuf
050a27f8 g     F .text	000000ac dump_buf_estats
050b8024 g     F .text	00000144 alt_tse_phy_check_link
050d3b3c g     O .bss	00000004 arpRepsOut
050d1848 g     O .rwdata	00000002 OSEventEn
050cb5dc g     O .rodata	00000028 __mprec_bigtens
05089754 g     F .text	00000120 __s2b
050d18a2 g     O .rwdata	00000002 OSTmrCfgNameSize
0508c2d8 g     F .text	00000194 __floatunsidf
050b97f4 g     F .text	000000fc netmain_init
050b9580 g     F .text	000000f4 marvell_cfg_sgmii
050b7e74 g     F .text	000001b0 alt_tse_phy_restart_an
050889dc g     F .text	00000060 __mcmp
050d3a74 g     O .bss	00000004 dsc_requests
050afc80 g     F .text	00000488 tcp_respond
050b1b74 g     F .text	0000033c udp4_sockbind
050d1810 g     O .rwdata	00000004 __ctype_ptr
050d3ac0 g     O .bss	00000004 old_mode
0509c78c g     F .text	0000026c igmp_joingroup
050a520c g     F .text	00000358 so_icmpdu
050870d0 g     F .text	00000018 __fp_lock_all
050d3b8c g     O .bss	00000004 vfs_dir_stale
050b2bac g     F .text	00000048 alt_ic_irq_enabled
050de1cc g     O .bss	00000010 pphy_profiles
050bf18c g     F .text	000000e4 ip_reasm_process_timer_tick
050c749c g     F .text	0000005c vclearerr
0509dc14 g     F .text	000000ec bsd_setsockopt
050a45f0 g     F .text	00000058 mbuf_len
05090e78 g     F .text	000000e4 OS_FlagInit
050b3344 g     F .text	00000098 alt_alarm_stop
050c719c g     F .text	000001e8 strippath
050d18d8 g     O .rwdata	00000004 reqlist
0509eb98 g     F .text	000001a0 tcp_sleep
050c94c8 g     F .text	00000024 strtol
0509f274 g     F .text	00000830 dhc_upcall
050b159c g     F .text	000000e0 tcp_usrclosed
05101000 g       *ABS*	00000000 __alt_mem_descriptor_memory
050d3aac g     O .bss	00000004 cticks_factor
050d1884 g     O .rwdata	00000002 OSTaskIdleStkSize
050c526c g     F .text	00000254 in_pcbbind
050d3b04 g     O .bss	00000004 alt_irq_active
05092c54 g     F .text	000000c0 OSSemAccept
05091664 g     F .text	000000f0 OSMemPut
05091118 g     F .text	0000021c OSMemCreate
050d39f0 g     O .bss	00000004 OSIdleCtrMax
050800ec g     F .exceptions	000000d0 alt_irq_handler
050d13b8 g     O .rwdata	00000028 alt_dev_null
050d18fa g     O .rwdata	00000001 tcprexmtthresh
050d1898 g     O .rwdata	00000002 OSTicksPerSec
050bb850 g     F .text	00000098 if_killsocks
050bc308 g     F .text	00000248 ip_write
050bfd34 g     F .text	0000060c ip_rcv_phase2
050a68d4 g     F .text	00000044 t_getsockname
050a65e8 g     F .text	000002a8 t_connect
050d18f4 g     O .rwdata	00000004 TCPTV_MSL
050ddbb8 g     O .bss	00000010 memestats
050b7d60 g     F .text	00000114 alt_tse_phy_init
050a30b8 g     F .text	00000060 getch
050968ac g     F .text	000000ac alt_set_flash_algorithm_func
050d1778 g     O .rwdata	00000080 vfs_root_path
050a6890 g     F .text	00000044 t_getpeername
05098b40 g     F .text	00000070 alt_avalon_sgdma_check_descriptor_status
050bde88 g     F .text	000000a0 ip_reasm_decr_mem_useage
050aa3f8 g     F .text	00000080 soreserve
050b36f0 g       .text	00000000 OSIntCtxSw
050a3a20 g     F .text	000000f4 npalloc
050b2710 g     F .text	00000044 alt_dcache_flush_all
050888a8 g     F .text	00000070 __hi0bits
050d3b68 g     O .bss	00000004 ipraw_eps
050a2108 g     F .text	00000290 pk_init
050c445c g     F .text	00000180 md_fread
050c8f5c g     F .text	0000001c calloc
0509a2b8 g     F .text	000002f8 tse_mac_raw_send
0508c200 g     F .text	000000d8 __fixdfsi
050de1dc g     O .bss	00000064 intimers
050aa4d8 g     F .text	00000048 sbrelease
050ab55c g     F .text	000000f0 ifd_clr
050aae08 g     F .text	00000094 sbdroprecord
0509e3d0 g     F .text	00000080 uslash
050b3550 g     F .text	00000120 alt_write
05096460 g     F .text	0000003c alt_write_flash_command_8bit_device_8bit_mode
050d3b38 g     O .bss	00000004 arpRepsIn
0509f0e4 g     F .text	00000090 dhc_get_srv_ipaddr
050b9e34 g     F .text	00000180 in_timerset
050d39f4 g     O .bss	00000004 OSTCBFreeList
050d1964 g       *ABS*	00000000 __ram_rwdata_end
05093344 g     F .text	0000017c OSSemPendAbort
050ae7b0 g     F .text	0000117c tcp_output
050d3b14 g     O .bss	00000004 activehost
05080000 g       *ABS*	00000000 __alt_mem_onchip_memory
050d1918 g     O .rwdata	00000008 alt_dev_list
0509e708 g     F .text	0000022c parse_args
050d3ac4 g     O .bss	00000004 global_TCPwakeup_setIndx
050872c0 g     F .text	00000058 _fputc_r
0509ada4 g     F .text	00000070 write
05098cf0 g     F .text	0000007c alt_avalon_sgdma_enable_desc_poll
050a3b14 g     F .text	000000b8 npfree
0508292c g     F .text	000000e8 _putc_r
050babd0 g     F .text	00000294 arpReply
0509de44 g     F .text	0000007c nextarg
050d189c g     O .rwdata	00000002 OSVersionNbr
050be838 g     F .text	00000594 ip_reasm_process_subsequent_fragments
050d195c g     O .rwdata	00000004 pton_error
050d3a68 g     O .bss	00000004 dsc_errors
050d422c g     O .bss	00002000 SSSInitialTaskStk
050dd708 g     O .bss	00000014 rcvdq
050ab4f4 g     F .text	00000068 tcp_notify
050cf948 g       *ABS*	00000000 __ram_rodata_end
0508cc1c g     F .text	000000d4 fstat
050822b4 g     F .text	0000002c fprintf
050a8038 g     F .text	000000d4 soconnect
050c1038 g     F .text	0000005c ip_raw_maxalloc
050b9774 g     F .text	00000080 DP83848C_link_status_read
0509fcc0 g     F .text	00000530 dhc_discover
05097700 g     F .text	000000dc alt_check_primary_table
0508194c g     F .text	000000a8 SSSCreateOSDataStructs
050c57ac g     F .text	0000007c in_setpeeraddr
050d1844 g     O .rwdata	00000004 OSEndiannessTest
050a3118 g     F .text	0000003c clock_init
050c6258 g     F .text	000000e4 vfgets
050ba204 g     F .text	0000017c et_send
05089634 g     F .text	00000120 __pow5mult
050d39a0 g     O .bss	00000004 __nlocale_changed
0508c5b0 g     F .text	00000008 __umodsi3
05095ef0 g     F .text	00000068 alt_flash_cfi_read
05096634 g     F .text	00000034 alt_write_native_8bit
050c4ac4 g     F .text	00000068 inet_addr
050bdd48 g     F .text	00000098 ip_reasm_check_mem_useage
050a9040 g     F .text	00000100 sorflush
050c9500 g     F .text	00000020 vprintf
050ddccc g     O .bss	000000fc global_tcb_ext
050bc9d8 g     F .text	00000488 ip_fragment_lc
050dd71c g     O .bss	00000300 netstatic
050a60f0 g     F .text	0000017c t_bind
0509894c g     F .text	00000074 alt_avalon_sgdma_construct_mem_to_stream_desc
050d1856 g     O .rwdata	00000002 OSFlagGrpSize
050a2d64 g     F .text	000000e4 udp_close
05098a44 g     F .text	00000050 alt_avalon_sgdma_register_callback
050a3704 g     F .text	0000021c alt_iniche_init
050de5c4 g       *ABS*	00000000 end
050a333c g     F .text	00000088 UNLOCK_NET_RESOURCE
05099578 g     F .text	00000258 prep_tse_mac
050a6e94 g     F .text	000000f0 t_recv
0509649c g     F .text	0000007c alt_write_flash_command_16bit_device_8bit_mode
050c6610 g     F .text	000001ac vfread
0509b5c0 g     F .text	000000e8 netclose
05082108 g     F .text	000001ac SSSSimpleSocketServerTask
050c8f44 g     F .text	0000000c _atoi_r
050b4804 g     F .text	000001d8 alt_tse_phy_add_profile
050969d4 g     F .text	00000580 alt_read_cfi_table
050d1904 g     O .rwdata	00000004 tcp_keepintvl
05097924 g     F .text	00000138 altera_avalon_jtag_uart_init
0508f1c8 g     F .text	000000e0 OS_TaskStat
050d3a6c g     O .bss	00000004 dsc_discovers
050d18b4 g     O .rwdata	00000004 tse_mac_name
050d1358 g     O .rwdata	00000018 tcp_protosw
050c9954 g       *ABS*	00000000 __CTOR_LIST__
050d3b88 g     O .bss	00000004 vfopen_error
050fd000 g       *ABS*	00000000 __alt_stack_pointer
050d3af8 g     O .bss	00000004 tcp_maxidle
050d3a98 g     O .bss	00000004 firstudp
05098d6c g     F .text	0000005c alt_avalon_sgdma_disable_desc_poll
0509938c g     F .text	00000090 alt_avalon_timer_sc_init
0508c5b8 g     F .text	00000080 __clzsi2
0509825c g     F .text	000002dc altera_avalon_jtag_uart_write
05098798 g     F .text	00000070 alt_avalon_sgdma_construct_mem_to_mem_desc
05095acc g     F .text	0000009c alt_flash_cfi_init
05086ff4 g     F .text	00000004 __sfp_lock_acquire
0508879c g     F .text	000000e4 memchr
0508ee90 g     F .text	00000054 OS_MemClr
05083448 g     F .text	00001eac ___vfprintf_internal_r
050b37c0 g     F .text	00000310 OSTaskStkInit
05082bc0 g     F .text	00000060 _sprintf_r
05098888 g     F .text	00000054 alt_avalon_sgdma_construct_stream_to_mem_desc
050874d4 g     F .text	00000314 _free_r
050c2ef8 g     F .text	00000170 igmpv2_chk4_rtr_alert_opt
050a760c g     F .text	000000d0 t_socketclose
050d622c g     O .bss	00002000 LED7SegLightshowTaskStk
0508e510 g     F .text	00000194 OS_EventTaskRdy
050c96cc g     F .text	000001b0 __call_exitprocs
05082aec g     F .text	0000004c __srget_r
0509a5b0 g     F .text	000000a8 tse_sgdmaRx_isr
050d39f8 g     O .bss	00000001 OSCPUUsage
050dda1c g     O .bss	00000010 nets
050a327c g     F .text	000000c0 LOCK_NET_RESOURCE
050a10b0 g     F .text	000000e4 dhc_resetip
050d39a4 g     O .bss	00000004 __mlocale_changed
0509a800 g     F .text	00000250 tse_mac_rcv
050a6060 g     F .text	00000090 t_socket
050d1828 g     O .rwdata	00000004 __malloc_sbrk_base
050801bc g     F .text	0000004c _start
050ba1b0 g     F .text	00000054 etainit
050d3b08 g     O .bss	00000004 _alt_tick_rate
050b9b5c g     F .text	00000024 mcastlist
05092050 g     F .text	00000320 OSQPend
050ddbc8 g     O .bss	000000f0 pktlog
050c2a08 g     F .text	0000014c igmpv2_process_report
050ab6c0 g     F .text	00000080 ifd_isset
050c1640 g     F .text	00000144 del_route
05098bb0 g     F .text	00000058 alt_avalon_sgdma_open
050833e8 g     F .text	00000008 _user_strerror
0509525c g     F .text	0000014c OSTimeDly
0508128c g     F .text	00000034 get_mac_addr
050a7a38 g     F .text	000000f0 solisten
050891c4 g     F .text	0000014c __lshift
050d3b0c g     O .bss	00000004 _alt_nticks
050b69b8 g     F .text	000000c4 alt_tse_phy_rd_mdio_reg
0509ad2c g     F .text	00000078 read
05095838 g     F .text	0000025c alt_sys_init
050b03b4 g     F .text	0000004c tcp_quench
0509e450 g     F .text	00000184 ns_printf
050bb6d4 g     F .text	000000e0 isbcast
050a33c4 g     F .text	00000214 TK_NEWTASK
050c9594 g     F .text	00000134 __register_exitproc
050d39f9 g     O .bss	00000001 OSTaskCtr
050bdc5c g     F .text	000000ec ip_reasm_determine_type_of_frag
050d3b10 g     O .bss	00000001 phy_profile_count
050c90d8 g     F .text	000000f0 strncmp
050b566c g     F .text	00000080 alt_tse_get_mac_group_index
050963d4 g     F .text	00000044 alt_read_query_entry_16bit
050953a8 g     F .text	00000184 OSTimeDlyHMSM
050b3304 g     F .text	00000040 alt_remap_uncached
050c0c34 g     F .text	000000c0 ip_raw_close
05089310 g     F .text	000001e8 __multiply
050d16c8 g     O .rwdata	000000b0 mdlist
05097e34 g     F .text	00000074 altera_avalon_jtag_uart_close
0509c250 g     F .text	000000f8 igmp_input
050bc900 g     F .text	000000d8 ip_raw_write
050cf948 g       *ABS*	00000000 __ram_rwdata_start
050c67bc g     F .text	000003e8 vfwrite_locked
050c91c8 g     F .text	000000bc strncpy
050c9958 g       *ABS*	00000000 __ram_rodata_start
050d3a70 g     O .bss	00000004 dsc_offers
050d4190 g     O .bss	00000028 __malloc_current_mallinfo
050d184a g     O .rwdata	00000002 OSEventMax
050c4df8 g     F .text	00000074 inet_setport
050966cc g     F .text	000001e0 alt_set_flash_width_func
05088ebc g     F .text	0000017c __d2b
050934c0 g     F .text	00000128 OSSemPost
050ae10c g     F .text	00000190 tcp_dooptions
050d399c g     O .bss	00000004 SSSLEDEventFlag
050a9bf0 g     F .text	000000fc soisconnected
0508e094 g     F .text	000000e4 OSSchedUnlock
050c0af4 g     F .text	00000028 netexit
050d3a54 g     O .bss	00000004 nettick_wakes
050b683c g     F .text	00000054 alt_tse_phy_wr_mdio_addr
050d3aec g     O .bss	00000001 tcpprintfs
050b9fb4 g     F .text	000000a8 in_timerkill
050c28a8 g     F .text	00000160 igmpv2_input
050d3a80 g     O .bss	00000004 dsc_declines
050977dc g     F .text	00000058 altera_avalon_jtag_uart_read_fd
0509de18 g     F .text	0000002c do_trap
050c77f0 g     F .text	000000f4 alt_get_fd
0509d818 g     F .text	00000104 bsd_ioctl
050d39fc g     O .bss	00000004 OSMemFreeList
0508e1e8 g     F .text	000000ac OSStatInit
050a4900 g     F .text	000001ec tcp_rcv
0509e228 g     F .text	00000044 panic
050c8de4 g     F .text	0000014c alt_busy_sleep
050d3b90 g     O .bss	00000004 vfs_open_files
0509bb4c g     F .text	000001a4 ip2mac
05090be0 g     F .text	000000d4 OSFlagQuery
0508ca84 g     F .text	000000c8 __fpcmp_parts_d
050ab214 g     F .text	00000214 sock_select
050c4010 g     F .text	00000288 dhc_setup
050afb10 g     F .text	00000058 tcp_init
050d3ac8 g     O .bss	00000004 cticks
050d3a5d g     O .bss	00000001 to_nettick
050d1880 g     O .rwdata	00000002 OSTaskCreateExtEn
0508a45c g     F .text	00000070 _close_r
0509ae14 g     F .text	0000064c Netinit
050a39b4 g     F .text	00000038 prep_armintcp
050c0770 g     F .text	00000168 in_addmulti
050afb68 g     F .text	00000118 tcp_template
050b8be4 g     F .text	0000031c alt_tse_phy_get_common_speed
050a46f0 g     F .text	00000070 remque
050b3c4c g     F .text	00000218 alt_erase_block_amd
050c94ec g     F .text	00000014 _vprintf_r
050ab7b0 g     F .text	00000408 tcp_reass
050c4fb8 g     F .text	000001cc tcp_cksum
050b1eb0 g     F .text	000003dc udp4_socksend
050c6028 g     F .text	000001a8 vfclose_locked
050ab64c g     F .text	00000074 ifd_set
050c8fd8 g     F .text	00000074 memcmp
0508e4f4 g     F .text	0000001c OS_Dummy
0509788c g     F .text	00000048 altera_avalon_jtag_uart_close_fd
050a1f8c g     F .text	000000b0 dhc_set_state
050d3a34 g     O .bss	00000004 NDEBUG
050de5c4 g       *ABS*	00000000 __alt_stack_base
050d398c g     O .bss	00000004 last_flash_sector
050978d4 g     F .text	00000050 altera_avalon_jtag_uart_ioctl_fd
050aa478 g     F .text	00000060 sbreserve
050d3b11 g     O .bss	00000001 mac_group_count
050c0cf4 g     F .text	00000238 ip_raw_input
05082314 g     F .text	0000009c _fwrite_r
050d18e4 g     O .rwdata	00000004 lilbufsiz
050ab740 g     F .text	00000070 ifd_get
050aa35c g     F .text	0000009c sbwakeup
05085464 g     F .text	0000013c __swsetup_r
05096f54 g     F .text	000007ac alt_read_cfi_width
050dba44 g     O .bss	000001e0 OSQTbl
050ae3c8 g     F .text	00000284 tcp_xmit_timer
0509a658 g     F .text	000001a8 tse_sgdma_read_init
0508bc08 g     F .text	00000258 __divdf3
0508716c g     F .text	000000f0 __sfp
050bb9e4 g     F .text	000001a4 ip_bldhead
05088d20 g     F .text	00000058 __copybits
050aa520 g     F .text	000000a8 sbappend
050cfd7c g     O .rwdata	00000408 __malloc_av_
05087000 g     F .text	00000004 __sinit_lock_release
050d3a00 g     O .bss	00000004 OSTCBHighRdy
0508b854 g     F .text	000003b4 __muldf3
050bc550 g     F .text	000003b0 ip_write2
0508a214 g     F .text	00000060 __sread
050d1948 g     O .rwdata	00000004 arp_ageout
050d3a04 g     O .bss	00000004 OSQFreeList
050b75f0 g     F .text	00000418 alt_tse_mac_get_phy
050bb8e8 g     F .text	000000fc ip_init
050c76d0 g     F .text	00000120 alt_find_file
050c0ff8 g     F .text	00000040 ip_raw_free
050baabc g     F .text	00000114 make_arp_entry
050b2780 g     F .text	000000b4 alt_dev_llist_insert
0508d338 g     F .text	00000108 __malloc_lock
050822e0 g     F .text	00000034 _fprintf_r
0508d174 g     F .text	000000bc sbrk
050b16c8 g     F .text	00000070 udp_lookup
05098a94 g     F .text	00000054 alt_avalon_sgdma_start
0508d640 g     F .text	00000144 OSEventNameSet
05086d6c g     F .text	000001fc _fflush_r
050b5944 g     F .text	00000098 alt_tse_mac_set_duplex
0508a3a8 g     F .text	000000b4 _calloc_r
050d3a08 g     O .bss	00000001 OSRdyGrp
050c4414 g     F .text	00000028 md_fopen
050d1370 g     O .rwdata	00000018 udp_protosw
050d182c g     O .rwdata	00000008 alt_flash_dev_list
05096560 g     F .text	00000044 alt_write_flash_command_16bit_device_16bit_mode
050c5730 g     F .text	0000007c in_setsockaddr
050d3980 g       *ABS*	00000000 __bss_start
0508100c g     F .text	0000009c LED7SegLightshowTask
050aa5c8 g     F .text	000000e0 sbappendrecord
050de354 g     O .bss	00000050 ip_mib
05082698 g     F .text	00000098 memset
050a810c g     F .text	000000a0 sodisconnect
05080e28 g     F .text	0000007c main
050d39c4 g     O .bss	00000004 alt_envp
050d39b4 g     O .bss	00000004 __malloc_max_total_mem
05081ab8 g     F .text	00000070 sss_reset_connection
050a4420 g     F .text	000001d0 m_adj
05097834 g     F .text	00000058 altera_avalon_jtag_uart_write_fd
05085448 g     F .text	0000001c __swbuf
050c46ac g     F .text	000000d8 md_fgetc
050cb75c g     O .rodata	00000100 OSUnMapTbl
050bd530 g     F .text	000002b8 ip_dump
0509eedc g     F .text	00000208 tk_stats
050d18c0 g     O .rwdata	00000008 alt_iniche_dev_list
050d822c g     O .bss	00000078 SSSLEDCommandQTbl
050d18b8 g     O .rwdata	00000008 alt_sgdma_list
050d187a g     O .rwdata	00000002 OSSemEn
050d3ab0 g     O .bss	00000004 OS_TPS
050a582c g     F .text	000007e8 rawip_usrreq
05090838 g     F .text	000003a8 OSFlagPost
0508a128 g     F .text	00000008 __sclose
050c4cd4 g     F .text	00000060 print46_addr
050fd000 g       *ABS*	00000000 __alt_heap_limit
0508a5dc g     F .text	00000014 fclose
0508e6a4 g     F .text	00000110 OS_EventTaskWait
050c9284 g     F .text	00000244 _strtol_r
0509e07c g     F .text	000001ac print_uptime
0508f2a8 g     F .text	000000c8 OS_TaskStatStkChk
050de434 g     O .bss	00000190 _atexit0
05094570 g     F .text	00000170 OSTaskDelReq
050857b8 g     F .text	000015b4 _dtoa_r
0508805c g     F .text	00000740 _malloc_r
050c4784 g     F .text	00000024 md_unlink
050b46c4 g     F .text	00000094 tse_mac_SwReset
050c5218 g     F .text	00000054 in_pcbdetach
050d1924 g     O .rwdata	00000004 alt_errno
050d1958 g     O .rwdata	00000004 mdlist_size
0508e178 g     F .text	00000070 OSStart
050965ec g     F .text	00000048 alt_write_flash_command_32bit_device_32bit_mode
050c3964 g     F .text	00000030 u_mctest_init
0508d2dc g     F .text	0000005c __env_unlock
05087d4c g     F .text	000000b8 _fwalk
05094a5c g     F .text	00000218 OSTaskResume
05091754 g     F .text	000000fc OSMemQuery
050c4e6c g     F .text	0000014c convert_ip
050ba914 g     F .text	000001a8 find_oldest_arp
050d188c g     O .rwdata	00000002 OSTaskStatEn
050d3b30 g     O .bss	00000004 arpReqsIn
050c5c20 g     F .text	00000050 vf_free_buffer
05095f58 g     F .text	00000164 alt_write_value_to_flash
050c751c g     F .text	00000154 alt_fcntl
050d1866 g     O .rwdata	00000002 OSMemMax
0509266c g     F .text	00000188 OSQPostFront
05096668 g     F .text	00000034 alt_write_native_16bit
050a2fdc g     F .text	00000030 dtrap
050d18f0 g     O .rwdata	00000004 kb_last
05082828 g     F .text	00000104 putc
0508c4e8 g     F .text	00000060 __divsi3
050b55a8 g     F .text	00000048 alt_tse_mac_set_common_speed
050d3a09 g     O .bss	00000003 OSRdyTbl
050d1840 g     O .rwdata	00000002 OSDebugEn
050cb638 g     O .rodata	00000014 __thenan_df
0509c040 g     F .text	000000d0 ip_exit
050873a8 g     F .text	0000012c _malloc_trim_r
050c9958 g       *ABS*	00000000 __CTOR_END__
050d1858 g     O .rwdata	00000002 OSFlagNodeSize
050d3a64 g     O .bss	00000004 dhc_conn
050a3170 g     F .text	0000006c cticks_hook
050d18a0 g     O .rwdata	00000002 OSTmrCfgMax
050b9ac4 g     F .text	0000004c sysuptime
0508a274 g     F .text	000000bc strcmp
0508132c g     F .text	00000370 generate_and_store_mac_addr
050bf270 g     F .text	000001c8 ip_reasm_delete_ire
05091a74 g     F .text	00000214 OSQCreate
050a31dc g     F .text	0000005c irq_Mask
050946e0 g     F .text	000001b8 OSTaskNameGet
050d3b1c g     O .bss	00000004 nextppp
050d3aa4 g     O .bss	00000004 irq_level
0509b460 g     F .text	00000160 fixup_subnet_mask
050c9958 g       *ABS*	00000000 __flash_rodata_start
050927f4 g     F .text	00000234 OSQPostOpt
0508e294 g     F .text	00000240 OSTimeTick
050bda54 g     F .text	00000138 ip_copypkt
050a1e88 g     F .text	00000090 dhc_alldone
050d1888 g     O .rwdata	00000002 OSTaskMax
050c9958 g       *ABS*	00000000 __DTOR_LIST__
05092d14 g     F .text	00000114 OSSemCreate
050d3a48 g     O .bss	00000004 igmp_all_hosts_group
050d18ac g     O .rwdata	00000002 OSTmrWheelSize
050aa2bc g     F .text	00000038 sbselqueue
050d3a50 g     O .bss	00000004 netmain_wakes
050bae64 g     F .text	00000260 arprcv
050d3984 g     O .bss	00000004 count
0509eb28 g     F .text	00000070 TK_OSTaskResume
0509cdd0 g     F .text	000003e0 igmp_print_stats
0508bee8 g     F .text	00000088 __nedf2
050a3c6c g     F .text	000000a0 pffindtype
050d1882 g     O .rwdata	00000002 OSTaskDelEn
050d1908 g     O .rwdata	00000004 tcp_sendspace
050c6d80 g     F .text	00000134 vftell
050dda90 g     O .bss	00000012 eth_prt_buf
050935e8 g     F .text	00000130 OSSemQuery
05091c88 g     F .text	00000300 OSQDel
05092370 g     F .text	0000017c OSQPendAbort
05095804 g     F .text	00000034 alt_irq_init
050b5568 g     F .text	00000040 alt_tse_mac_get_common_speed
050ddef8 g     O .bss	00000018 app_semaphore
050b326c g     F .text	00000060 alt_release_fd
050a368c g     F .text	00000078 post_app_sem
0509c1a0 g     F .text	000000b0 igmp_init
05082b4c g     F .text	00000074 sprintf
050cb64c g     O .rodata	00000100 __clz_tab
050d3a8c g     O .bss	00000004 dsc_renew
050c45dc g     F .text	00000080 md_fwrite
050d39a8 g     O .bss	00000004 _PathLocale
050d3ab4 g     O .bss	00000004 tcp_sleep_count
050a4760 g     F .text	0000007c insque
050c8f30 g     F .text	00000014 atexit
050d3b84 g     O .bss	00000004 vfsfiles
0508a330 g     F .text	00000078 _write_r
050c9520 g     F .text	00000050 _vsprintf_r
050c1fdc g     F .text	000002b8 udp_send
0508e008 g     F .text	0000008c OSSchedLock
0509c4e4 g     F .text	000002a8 igmp_send
05087eac g     F .text	0000001c setlocale
0508fb10 g     F .text	0000013c OSFlagCreate
050d82a4 g     O .bss	00002000 LEDManagementTaskStk
050a3238 g     F .text	00000044 irq_Unmask
050a626c g     F .text	000000e4 t_listen
050d1814 g     O .rwdata	00000004 _impure_ptr
050cf948 g     O .rwdata	00000018 ssstask
050d39bc g     O .bss	00000004 alt_argc
050b0c90 g     F .text	00000704 tcp_usrreq
050b18f0 g     F .text	00000284 udp_usrreq
050a3bcc g     F .text	00000054 ncpalloc
050b28f8 g     F .text	00000064 _do_dtors
050d1852 g     O .rwdata	00000002 OSEventMultiEn
050d1940 g     O .rwdata	00000004 pingdelay
050ba408 g     F .text	00000074 arp_send_pending
050dd4c8 g     O .bss	000000e0 tse_mac_if
050c25c0 g     F .text	000002e8 igmpv1_input
05089e68 g     F .text	000001c4 __srefill_r
050a3920 g     F .text	00000074 pre_task_setup
050d3ad4 g     O .bss	00000004 rcvdq_sem_ptr
0509d414 g     F .text	0000012c bsd_getsockname
050bf438 g     F .text	00000148 ip_reasm_mark_compact_rfq
05081808 g     F .text	00000144 FindLastFlashSectorOffset
0508fc4c g     F .text	000002a8 OSFlagDel
050d3a0c g     O .bss	00000004 OSEventFreeList
0509f230 g     F .text	00000044 dhc_set_callback
05080020 g       .exceptions	00000000 alt_irq_entry
050d3b2c g     O .bss	00000004 arpcache
050c870c g     F .text	00000350 icmp_destun
050c09f0 g     F .text	00000070 lookup_mcast
050c7154 g     F .text	00000048 vfslookup
050c0340 g     F .text	00000430 ip_demux
05088a3c g     F .text	00000080 __ulp
0508a048 g     F .text	00000040 __isinfd
050d3ab8 g     O .bss	00000004 tcp_wakeup_count
0509018c g     F .text	00000644 OSFlagPend
050d189e g     O .rwdata	00000002 OSTmrEn
050870b8 g     F .text	00000018 __fp_unlock_all
050a35d8 g     F .text	000000b4 wait_app_sem
0508725c g     F .text	00000064 fputc
050d18c8 g     O .rwdata	00000004 ipmcfail_str
050d3acc g     O .bss	00000004 memtrapsize
050a40fc g     F .text	00000324 m_copy
050d1910 g     O .rwdata	00000008 alt_fs_list
050ddf74 g     O .bss	00000014 mfreeq
0508f094 g     F .text	00000080 OS_StrCopy
050a79dc g     F .text	0000005c sobind
050c439c g     F .text	00000078 init_memdev
050d3980 g     O .bss	00000001 to_ssstask
05096518 g     F .text	00000048 alt_write_flash_command_32bit_device_8bit_mode
050a47dc g     F .text	00000124 nptcp_init
050d1868 g     O .rwdata	00000002 OSMemNameSize
050dddc8 g     O .bss	000000f0 global_TCPwakeup_set
050b3b8c g     F .text	0000001c OSInitHookEnd
050a9d78 g     F .text	000000bc soisdisconnected
05080020 g       *ABS*	00000000 __ram_exceptions_start
050ba380 g     F .text	00000088 arp_free_pending
050d1894 g     O .rwdata	00000002 OSTCBPrioTblMax
05087e18 g     F .text	00000010 localeconv
050a7c58 g     F .text	000002f4 soclose
050ddcb8 g     O .bss	00000014 bigfreeq
050d1890 g     O .rwdata	00000002 OSTaskStatStkChkEn
050d193c g     O .rwdata	00000004 prompt
050b8a4c g     F .text	00000198 alt_tse_phy_set_adv_10
050d1900 g     O .rwdata	00000004 tcp_keepidle
050a5658 g     F .text	000001d4 rawip_soinput
050b2a20 g     F .text	00000050 alt_ic_isr_register
050c6ba4 g     F .text	00000060 vfwrite
050d1864 g     O .rwdata	00000002 OSMemEn
050aa050 g     F .text	000000ac soqinsque
050d3b60 g     O .bss	00000004 so_evtmap_delete
050823b0 g     F .text	00000040 fwrite
050d186e g     O .rwdata	00000002 OSMutexEn
050d3b4c g     O .bss	00000004 h_ireq
050d1964 g       *ABS*	00000000 _edata
050bce60 g     F .text	00000624 ip_fragment
0509abe8 g     F .text	00000144 iniche_devices_init
050ddf88 g     O .bss	00000028 tcp_saveti
0509e618 g     F .text	000000f0 con_page
050de5c4 g       *ABS*	00000000 _end
050a9600 g     F .text	00000540 sogetopt
0508cb4c g     F .text	0000007c alt_flash_open_dev
050d3a10 g     O .bss	00000001 OSIntNesting
050b7a08 g     F .text	00000238 alt_tse_mac_associate_phy
050d1328 g     O .rwdata	00000030 nettasks
050a27d8 g     F .text	00000020 pk_get_max_intrsafe_buf_len
050bd7e8 g     F .text	0000026c iproute
050a5124 g     F .text	000000e8 np_stripoptions
050d3b64 g     O .bss	00000001 so_evtmap
050801bc g       *ABS*	00000000 __ram_exceptions_end
05097ea8 g     F .text	000000f4 altera_avalon_jtag_uart_ioctl
05087318 g     F .text	00000074 _fputs_r
0509552c g     F .text	00000210 OSTimeDlyResume
050819f4 g     F .text	000000c4 SSSCreateTasks
050c1218 g     F .text	00000428 add_route
05090038 g     F .text	00000154 OSFlagNameSet
0509ba7c g     F .text	000000d0 c_older
050aaa98 g     F .text	00000090 sbflush
050c443c g     F .text	00000020 md_fclose
0509eeb0 g     F .text	0000002c tk_yield
05081cb8 g     F .text	000000c0 sss_handle_accept
05094c74 g     F .text	000001fc OSTaskStkChk
050b2b0c g     F .text	000000a0 alt_ic_irq_disable
050a81ac g     F .text	00000608 sosend
050d186a g     O .rwdata	00000002 OSMemSize
050bd484 g     F .text	000000ac ip_mymach
05098c68 g     F .text	00000088 alt_avalon_sgdma_construct_descriptor
0508a198 g     F .text	0000007c __swrite
050d3aa0 g     O .bss	00000004 cticks_initialized
050d1944 g     O .rwdata	00000004 deflength
050a70d4 g     F .text	0000022c t_sendto
050d1824 g     O .rwdata	00000004 __malloc_trim_threshold
05082730 g     F .text	0000006c _perror_r
050b36d0 g     F .text	00000020 altera_nios2_qsys_irq_init
050d3a14 g     O .bss	00000004 OSTCBCur
050a7810 g     F .text	000001cc socreate
050c8f78 g     F .text	00000038 exit
050de240 g     O .bss	00000100 arp_table
050d3b9c g     O .bss	00000004 icmpdu_hook
050d186c g     O .rwdata	00000002 OSMemTblSize
05087c84 g     F .text	000000c8 _fwalk_reent
050ba05c g     F .text	00000024 create_apptasks
050d18fc g     O .rwdata	00000004 tcp_ttl
05089038 g     F .text	0000018c __mdiff
0508cbc8 g     F .text	00000054 alt_flash_close_dev
050a3c20 g     F .text	0000004c ncpfree
0508c548 g     F .text	00000060 __modsi3
050d3a2c g     O .bss	00000004 MaxLnh
050b47b0 g     F .text	00000054 tse_mac_setGMIImode
050c4c48 g     F .text	0000008c inet_ntop
050c2554 g     F .text	0000002c udp_maxalloc
050b948c g     F .text	000000f4 marvell_cfg_gmii
050fd000 g       *ABS*	00000000 __alt_data_end
05080020 g     F .exceptions	00000000 alt_exception
05086ff8 g     F .text	00000004 __sfp_lock_release
0508de38 g     F .text	00000054 OSInit
050b7c40 g     F .text	00000120 alt_tse_phy_cfg_pcs
0509509c g     F .text	00000144 OSTaskQuery
050b98f0 g     F .text	00000088 icmp_port_du
050d3afc g     O .bss	00000004 tcp_iss
05092ba8 g     F .text	000000ac OS_QInit
050c8f50 g     F .text	0000000c atoi
050d18ec g     O .rwdata	00000004 bigbufsiz
0508f114 g     F .text	00000058 OS_StrLen
050b0400 g     F .text	00000080 tcp_putseq
05091544 g     F .text	00000120 OSMemNameSet
050caa10 g     O .rodata	00000101 _ctype_
050aa6a8 g     F .text	00000208 sbappendaddr
02000000 g       *ABS*	00000000 __alt_mem_ext_flash
050d3b94 g     O .bss	00000004 vfs_total_rw_space
050c37a0 g     F .text	00000140 ip_getmoptions
050d1886 g     O .rwdata	00000002 OSTaskProfileEn
050c2294 g     F .text	00000130 udpswap
050d3a18 g     O .bss	00000004 OSTime
050d3ad8 g     O .bss	00000004 nextslow
050b04f8 g     F .text	000002a0 tcp_slowtimo
050b0108 g     F .text	00000118 tcp_newtcpcb
050bb0c4 g     F .text	000001a8 send_via_arp
0509f174 g     F .text	000000bc dhc_init
050bedcc g     F .text	00000064 ip_reasm_find_ire
050dbc24 g     O .bss	00000800 OSTaskIdleStk
050c98bc g     F .text	0000002c _exit
050c7384 g     F .text	00000064 isvfile_locked
0508a088 g     F .text	00000030 __isnand
0509daac g     F .text	00000168 bsd_select
050b23e8 g     F .text	00000154 alt_alarm_start
0508fef4 g     F .text	00000144 OSFlagNameGet
050c2580 g     F .text	00000040 udp_free
050a28a4 g     F .text	000000c8 getq
050c74f8 g     F .text	00000024 prep_vfs
0509573c g     F .text	00000064 OSTimeGet
050d1938 g     O .rwdata	00000004 name
050aacf8 g     F .text	00000110 sbdropend
05087ec8 g     F .text	00000194 __smakebuf_r
0509669c g     F .text	00000030 alt_write_native_32bit
050bb26c g     F .text	00000118 cb_arpent_tmo
05083374 g     F .text	00000074 strlen
050c3068 g     F .text	00000148 IPADDR_TO_NETP
0509d91c g     F .text	00000030 bsd_inet_ntoa
050b3b10 g     F .text	0000001c OSTaskSwHook
050b2f04 g     F .text	00000188 open
050a2b2c g     F .text	00000238 udp_open
050dc424 g     O .bss	00000b40 OSEventTbl
050aa21c g     F .text	00000050 socantsendmore
050d3b98 g     O .bss	00000004 vfs_total_dyna_files
0508bff8 g     F .text	00000088 __gedf2
050dcf64 g     O .bss	00000510 OSTCBTbl
050d3b34 g     O .bss	00000004 arpReqsOut
05093718 g     F .text	00000104 OSSemSet
050d1960 g     O .rwdata	00000004 http_root_path
050a1378 g     F .text	000002bc dhc_extract_opts
050be2a8 g     F .text	00000590 ip_reasm_compute_overlap
05095e60 g     F .text	00000090 alt_flash_cfi_get_info
050b4620 g     F .text	000000a4 tse_mac_aRxRead
050b29f0 g     F .text	00000030 alt_icache_flush_all
05082c20 g     F .text	000000e0 strchr
050ddaa2 g     O .bss	00000012 ipreturn
050d3b54 g     O .bss	00000004 port_prep
050d13ab g     O .rwdata	0000000d tcp_backoff
050a9b84 g     F .text	0000006c soisconnecting
05080db0 g     F .text	00000078 SSSInitialTask
0508738c g     F .text	0000001c fputs
050d1928 g     O .rwdata	00000004 alt_priority_mask
050c2b54 g     F .text	0000024c igmpv2_process_query
050aae9c g     F .text	00000220 t_select
05092e28 g     F .text	000002a0 OSSemDel
050b228c g     F .text	0000015c udp4_sockaddr
050d3a1c g     O .bss	00000004 OSFlagFreeList
050c54c0 g     F .text	00000210 in_pcbconnect
050d3af0 g     O .bss	00000004 dropline
050d3b50 g     O .bss	00000004 ire_cticks
050b2a70 g     F .text	0000009c alt_ic_irq_enable
050d184c g     O .rwdata	00000002 OSEventNameSize
050852f4 g     F .text	00000024 __vfprintf_internal
0509ea28 g     F .text	00000088 tk_netmain
050c56d0 g     F .text	00000060 in_pcbdisconnect
050d3a20 g     O .bss	00000001 OSStatRdy
050dd474 g     O .bss	00000054 OSTCBPrioTbl
0508d230 g     F .text	000000ac __env_lock
050d1892 g     O .rwdata	00000002 OSTaskSwHookEn
050d16a4 g     O .rwdata	00000024 mdio
050b5858 g     F .text	000000ec alt_tse_mac_set_speed
05098808 g     F .text	00000080 alt_avalon_sgdma_construct_mem_to_mem_desc_burst
0509d1b0 g     F .text	00000138 bsd_accept
050d190c g     O .rwdata	00000004 tcp_recvspace
0508b760 g     F .text	00000080 __subdf3
050b167c g     F .text	0000004c tcpinit
050d3a4c g     O .bss	00000004 igmp_all_rtrs_group
050a55e8 g     F .text	00000070 rawip_lookup
050ba100 g     F .text	000000b0 fcntl
05088918 g     F .text	000000c4 __lo0bits
050aa8b0 g     F .text	000001e8 sbcompress
050d192c g     O .rwdata	00000008 alt_alarm_list
050b0220 g     F .text	000000ac tcp_drop
050d185a g     O .rwdata	00000002 OSFlagWidth
050b2894 g     F .text	00000064 _do_ctors
050b883c g     F .text	00000210 alt_tse_phy_set_adv_100
050b07f4 g     F .text	0000049c tcp_timers
0509c110 g     F .text	00000090 if_netnumber
050c38e0 g     F .text	00000084 ip_freemoptions
050a9b40 g     F .text	00000044 sohasoutofband
050abbb8 g     F .text	00002554 tcp_input
0509d2e8 g     F .text	0000012c bsd_getpeername
0509d94c g     F .text	00000160 bsd_recvfrom
0509ab94 g     F .text	00000054 close
050d3a7c g     O .bss	00000004 dsc_bpreplys
050b3be4 g     F .text	00000068 alt_program_amd
050d39cc g     O .bss	00000004 alt_envsem
050d3a24 g     O .bss	00000004 OSIdleCtrRun
0508e4d4 g     F .text	00000020 OSVersion
050d18a4 g     O .rwdata	00000002 OSTmrCfgWheelSize
0508ce70 g     F .text	00000080 alt_load
050951e0 g     F .text	0000007c OS_TaskStkClr
050c5a84 g     F .text	00000028 set_vfopen_error
0508c638 g     F .text	00000314 __pack_d
050d187e g     O .rwdata	00000002 OSTaskCreateEn
050b55f0 g     F .text	0000007c alt_tse_get_system_index
050d1388 g     O .rwdata	00000018 rawip_protosw
050aa2f4 g     F .text	00000068 sbwait
0508eac4 g     F .text	00000068 OS_EventWaitListInit
050a1634 g     F .text	0000059c dhc_second
05099270 g     F .text	000000ac alt_avalon_sgdma_init
050d3b20 g     O .bss	00000004 port_1s_callout
050b3ba8 g     F .text	0000001c OSTaskIdleHook
050c8fb0 g     F .text	00000014 free
05086ffc g     F .text	00000004 __sinit_lock_acquire
050d3a28 g     O .bss	00000001 number_of_tse_mac
05089534 g     F .text	00000100 __multadd
05094e70 g     F .text	0000022c OSTaskSuspend
05088880 g     F .text	00000028 _Bfree
050b44a4 g     F .text	0000002c no_printf
050a9e34 g     F .text	0000021c sonewconn
050c7ad8 g     F .text	00000c34 icmprcv
050a3d0c g     F .text	000000d0 pffindproto
0508f16c g     F .text	0000005c OS_TaskIdle
050d18aa g     O .rwdata	00000002 OSTmrTblSize
05092a28 g     F .text	00000180 OSQQuery



Disassembly of section .entry:

05080000 <__reset>:
 5080000:	00840014 	movui	r2,4096
 5080004:	1001483a 	initi	r2
 5080008:	10bff804 	addi	r2,r2,-32
 508000c:	00bffd16 	blt	zero,r2,5080004 <__reset+0x4>
 5080010:	00414234 	movhi	at,1288
 5080014:	08406f14 	ori	at,at,444
 5080018:	0800683a 	jmp	at
 508001c:	00000000 	call	0 <OSTCBStkPtr_OFFSET>

Disassembly of section .exceptions:

05080020 <alt_exception>:
 5080020:	deffed04 	addi	sp,sp,-76
 5080024:	dfc00015 	stw	ra,0(sp)
 5080028:	d8400215 	stw	at,8(sp)
 508002c:	d8800315 	stw	r2,12(sp)
 5080030:	d8c00415 	stw	r3,16(sp)
 5080034:	d9000515 	stw	r4,20(sp)
 5080038:	d9400615 	stw	r5,24(sp)
 508003c:	d9800715 	stw	r6,28(sp)
 5080040:	d9c00815 	stw	r7,32(sp)
 5080044:	000b307a 	rdctl	r5,estatus
 5080048:	da000915 	stw	r8,36(sp)
 508004c:	da400a15 	stw	r9,40(sp)
 5080050:	da800b15 	stw	r10,44(sp)
 5080054:	dac00c15 	stw	r11,48(sp)
 5080058:	db000d15 	stw	r12,52(sp)
 508005c:	db400e15 	stw	r13,56(sp)
 5080060:	db800f15 	stw	r14,60(sp)
 5080064:	dbc01015 	stw	r15,64(sp)
 5080068:	d9401115 	stw	r5,68(sp)
 508006c:	ebffff04 	addi	r15,ea,-4
 5080070:	dbc01215 	stw	r15,72(sp)
 5080074:	0009313a 	rdctl	r4,ipending
 5080078:	2880004c 	andi	r2,r5,1
 508007c:	10000326 	beq	r2,zero,508008c <alt_exception+0x6c>
 5080080:	20000226 	beq	r4,zero,508008c <alt_exception+0x6c>
 5080084:	50800ec0 	call	50800ec <alt_irq_handler>
 5080088:	00000306 	br	5080098 <alt_exception+0x78>
 508008c:	df401215 	stw	ea,72(sp)
 5080090:	e8bfff17 	ldw	r2,-4(ea)
 5080094:	003da03a 	break	0
 5080098:	d9401117 	ldw	r5,68(sp)
 508009c:	df401217 	ldw	ea,72(sp)
 50800a0:	dfc00017 	ldw	ra,0(sp)
 50800a4:	2801707a 	wrctl	estatus,r5
 50800a8:	d8400217 	ldw	at,8(sp)
 50800ac:	d8800317 	ldw	r2,12(sp)
 50800b0:	d8c00417 	ldw	r3,16(sp)
 50800b4:	d9000517 	ldw	r4,20(sp)
 50800b8:	d9400617 	ldw	r5,24(sp)
 50800bc:	d9800717 	ldw	r6,28(sp)
 50800c0:	d9c00817 	ldw	r7,32(sp)
 50800c4:	da000917 	ldw	r8,36(sp)
 50800c8:	da400a17 	ldw	r9,40(sp)
 50800cc:	da800b17 	ldw	r10,44(sp)
 50800d0:	dac00c17 	ldw	r11,48(sp)
 50800d4:	db000d17 	ldw	r12,52(sp)
 50800d8:	db400e17 	ldw	r13,56(sp)
 50800dc:	db800f17 	ldw	r14,60(sp)
 50800e0:	dbc01017 	ldw	r15,64(sp)
 50800e4:	dec01304 	addi	sp,sp,76
 50800e8:	ef80083a 	eret

050800ec <alt_irq_handler>:
 50800ec:	defff904 	addi	sp,sp,-28
 50800f0:	dfc00615 	stw	ra,24(sp)
 50800f4:	df000515 	stw	fp,20(sp)
 50800f8:	df000504 	addi	fp,sp,20
 50800fc:	508de8c0 	call	508de8c <OSIntEnter>
 5080100:	0005313a 	rdctl	r2,ipending
 5080104:	e0bffc15 	stw	r2,-16(fp)
 5080108:	e0bffc17 	ldw	r2,-16(fp)
 508010c:	e0bfff15 	stw	r2,-4(fp)
 5080110:	e03ffd15 	stw	zero,-12(fp)
 5080114:	00800044 	movi	r2,1
 5080118:	e0bffe15 	stw	r2,-8(fp)
 508011c:	e0ffff17 	ldw	r3,-4(fp)
 5080120:	e0bffe17 	ldw	r2,-8(fp)
 5080124:	1884703a 	and	r2,r3,r2
 5080128:	1005003a 	cmpeq	r2,r2,zero
 508012c:	1000161e 	bne	r2,zero,5080188 <alt_irq_handler+0x9c>
 5080130:	e0bffd17 	ldw	r2,-12(fp)
 5080134:	00c143b4 	movhi	r3,1294
 5080138:	18f82f04 	addi	r3,r3,-8004
 508013c:	100490fa 	slli	r2,r2,3
 5080140:	10c5883a 	add	r2,r2,r3
 5080144:	11400017 	ldw	r5,0(r2)
 5080148:	e0bffd17 	ldw	r2,-12(fp)
 508014c:	00c143b4 	movhi	r3,1294
 5080150:	18f82f04 	addi	r3,r3,-8004
 5080154:	100490fa 	slli	r2,r2,3
 5080158:	10c5883a 	add	r2,r2,r3
 508015c:	10800104 	addi	r2,r2,4
 5080160:	11000017 	ldw	r4,0(r2)
 5080164:	283ee83a 	callr	r5
 5080168:	0005313a 	rdctl	r2,ipending
 508016c:	e0bffb15 	stw	r2,-20(fp)
 5080170:	e0bffb17 	ldw	r2,-20(fp)
 5080174:	e0bfff15 	stw	r2,-4(fp)
 5080178:	e0bfff17 	ldw	r2,-4(fp)
 508017c:	1004c03a 	cmpne	r2,r2,zero
 5080180:	103fe31e 	bne	r2,zero,5080110 <alt_irq_handler+0x24>
 5080184:	00000706 	br	50801a4 <alt_irq_handler+0xb8>
 5080188:	e0bffe17 	ldw	r2,-8(fp)
 508018c:	1085883a 	add	r2,r2,r2
 5080190:	e0bffe15 	stw	r2,-8(fp)
 5080194:	e0bffd17 	ldw	r2,-12(fp)
 5080198:	10800044 	addi	r2,r2,1
 508019c:	e0bffd15 	stw	r2,-12(fp)
 50801a0:	003fde06 	br	508011c <alt_irq_handler+0x30>
 50801a4:	508df080 	call	508df08 <OSIntExit>
 50801a8:	e037883a 	mov	sp,fp
 50801ac:	dfc00117 	ldw	ra,4(sp)
 50801b0:	df000017 	ldw	fp,0(sp)
 50801b4:	dec00204 	addi	sp,sp,8
 50801b8:	f800283a 	ret

Disassembly of section .text:

050801bc <_start>:
 50801bc:	00820014 	movui	r2,2048
 50801c0:	10000033 	initd	0(r2)
 50801c4:	10bff804 	addi	r2,r2,-32
 50801c8:	00bffd16 	blt	zero,r2,50801c0 <_start+0x4>
 50801cc:	06c143f4 	movhi	sp,1295
 50801d0:	def40014 	ori	sp,sp,53248
 50801d4:	06814374 	movhi	gp,1293
 50801d8:	d6a60414 	ori	gp,gp,38928
 50801dc:	00814374 	movhi	r2,1293
 50801e0:	108e6014 	ori	r2,r2,14720
 50801e4:	00c14374 	movhi	r3,1293
 50801e8:	18f97114 	ori	r3,r3,58820
 50801ec:	10c00326 	beq	r2,r3,50801fc <_start+0x40>
 50801f0:	10000015 	stw	zero,0(r2)
 50801f4:	10800104 	addi	r2,r2,4
 50801f8:	10fffd36 	bltu	r2,r3,50801f0 <_start+0x34>
 50801fc:	508ce700 	call	508ce70 <alt_load>
 5080200:	508d0ac0 	call	508d0ac <alt_main>

05080204 <alt_after_alt_main>:
 5080204:	003fff06 	br	5080204 <alt_after_alt_main>

05080208 <alt_uCOSIIErrorHandler>:
 5080208:	defff904 	addi	sp,sp,-28
 508020c:	dfc00615 	stw	ra,24(sp)
 5080210:	df000515 	stw	fp,20(sp)
 5080214:	df000504 	addi	fp,sp,20
 5080218:	e17ffd15 	stw	r5,-12(fp)
 508021c:	e13ffc05 	stb	r4,-16(fp)
 5080220:	e0bffc03 	ldbu	r2,-16(fp)
 5080224:	1005003a 	cmpeq	r2,r2,zero
 5080228:	10017b1e 	bne	r2,zero,5080818 <alt_uCOSIIErrorHandler+0x610>
 508022c:	00800084 	movi	r2,2
 5080230:	e0bffb15 	stw	r2,-20(fp)
 5080234:	508e0080 	call	508e008 <OSSchedLock>
 5080238:	e0bffc03 	ldbu	r2,-16(fp)
 508023c:	e0bffe15 	stw	r2,-8(fp)
 5080240:	e0fffe17 	ldw	r3,-8(fp)
 5080244:	18800a20 	cmpeqi	r2,r3,40
 5080248:	1000371e 	bne	r2,zero,5080328 <alt_uCOSIIErrorHandler+0x120>
 508024c:	e0fffe17 	ldw	r3,-8(fp)
 5080250:	18800a48 	cmpgei	r2,r3,41
 5080254:	10001a1e 	bne	r2,zero,50802c0 <alt_uCOSIIErrorHandler+0xb8>
 5080258:	e0fffe17 	ldw	r3,-8(fp)
 508025c:	18800120 	cmpeqi	r2,r3,4
 5080260:	1000761e 	bne	r2,zero,508043c <alt_uCOSIIErrorHandler+0x234>
 5080264:	e0fffe17 	ldw	r3,-8(fp)
 5080268:	18800148 	cmpgei	r2,r3,5
 508026c:	10000a1e 	bne	r2,zero,5080298 <alt_uCOSIIErrorHandler+0x90>
 5080270:	e0fffe17 	ldw	r3,-8(fp)
 5080274:	188000a0 	cmpeqi	r2,r3,2
 5080278:	1000911e 	bne	r2,zero,50804c0 <alt_uCOSIIErrorHandler+0x2b8>
 508027c:	e0fffe17 	ldw	r3,-8(fp)
 5080280:	188000c8 	cmpgei	r2,r3,3
 5080284:	1000771e 	bne	r2,zero,5080464 <alt_uCOSIIErrorHandler+0x25c>
 5080288:	e0fffe17 	ldw	r3,-8(fp)
 508028c:	18800060 	cmpeqi	r2,r3,1
 5080290:	10005e1e 	bne	r2,zero,508040c <alt_uCOSIIErrorHandler+0x204>
 5080294:	0000d806 	br	50805f8 <alt_uCOSIIErrorHandler+0x3f0>
 5080298:	e0fffe17 	ldw	r3,-8(fp)
 508029c:	18800520 	cmpeqi	r2,r3,20
 50802a0:	10004f1e 	bne	r2,zero,50803e0 <alt_uCOSIIErrorHandler+0x1d8>
 50802a4:	e0fffe17 	ldw	r3,-8(fp)
 50802a8:	188007a0 	cmpeqi	r2,r3,30
 50802ac:	1000ad1e 	bne	r2,zero,5080564 <alt_uCOSIIErrorHandler+0x35c>
 50802b0:	e0fffe17 	ldw	r3,-8(fp)
 50802b4:	188002a0 	cmpeqi	r2,r3,10
 50802b8:	1000761e 	bne	r2,zero,5080494 <alt_uCOSIIErrorHandler+0x28c>
 50802bc:	0000ce06 	br	50805f8 <alt_uCOSIIErrorHandler+0x3f0>
 50802c0:	e0fffe17 	ldw	r3,-8(fp)
 50802c4:	18801020 	cmpeqi	r2,r3,64
 50802c8:	10009c1e 	bne	r2,zero,508053c <alt_uCOSIIErrorHandler+0x334>
 50802cc:	e0fffe17 	ldw	r3,-8(fp)
 50802d0:	18801048 	cmpgei	r2,r3,65
 50802d4:	10000a1e 	bne	r2,zero,5080300 <alt_uCOSIIErrorHandler+0xf8>
 50802d8:	e0fffe17 	ldw	r3,-8(fp)
 50802dc:	18800f60 	cmpeqi	r2,r3,61
 50802e0:	10008b1e 	bne	r2,zero,5080510 <alt_uCOSIIErrorHandler+0x308>
 50802e4:	e0fffe17 	ldw	r3,-8(fp)
 50802e8:	18800fa0 	cmpeqi	r2,r3,62
 50802ec:	10007e1e 	bne	r2,zero,50804e8 <alt_uCOSIIErrorHandler+0x2e0>
 50802f0:	e0fffe17 	ldw	r3,-8(fp)
 50802f4:	18800aa0 	cmpeqi	r2,r3,42
 50802f8:	1000151e 	bne	r2,zero,5080350 <alt_uCOSIIErrorHandler+0x148>
 50802fc:	0000be06 	br	50805f8 <alt_uCOSIIErrorHandler+0x3f0>
 5080300:	e0fffe17 	ldw	r3,-8(fp)
 5080304:	18801920 	cmpeqi	r2,r3,100
 5080308:	1000a11e 	bne	r2,zero,5080590 <alt_uCOSIIErrorHandler+0x388>
 508030c:	e0fffe17 	ldw	r3,-8(fp)
 5080310:	18803fe0 	cmpeqi	r2,r3,255
 5080314:	1000aa1e 	bne	r2,zero,50805c0 <alt_uCOSIIErrorHandler+0x3b8>
 5080318:	e0fffe17 	ldw	r3,-8(fp)
 508031c:	188010a0 	cmpeqi	r2,r3,66
 5080320:	10001d1e 	bne	r2,zero,5080398 <alt_uCOSIIErrorHandler+0x190>
 5080324:	0000b406 	br	50805f8 <alt_uCOSIIErrorHandler+0x3f0>
 5080328:	00814374 	movhi	r2,1293
 508032c:	10860504 	addi	r2,r2,6164
 5080330:	10800017 	ldw	r2,0(r2)
 5080334:	11c00317 	ldw	r7,12(r2)
 5080338:	01014374 	movhi	r4,1293
 508033c:	21265604 	addi	r4,r4,-26280
 5080340:	01400044 	movi	r5,1
 5080344:	01800c44 	movi	r6,49
 5080348:	50823b00 	call	50823b0 <fwrite>
 508034c:	0000c106 	br	5080654 <alt_uCOSIIErrorHandler+0x44c>
 5080350:	00814374 	movhi	r2,1293
 5080354:	10860504 	addi	r2,r2,6164
 5080358:	10800017 	ldw	r2,0(r2)
 508035c:	11c00317 	ldw	r7,12(r2)
 5080360:	01014374 	movhi	r4,1293
 5080364:	21266304 	addi	r4,r4,-26228
 5080368:	01400044 	movi	r5,1
 508036c:	01800c44 	movi	r6,49
 5080370:	50823b00 	call	50823b0 <fwrite>
 5080374:	00814374 	movhi	r2,1293
 5080378:	10860504 	addi	r2,r2,6164
 508037c:	10800017 	ldw	r2,0(r2)
 5080380:	11000317 	ldw	r4,12(r2)
 5080384:	01414374 	movhi	r5,1293
 5080388:	29667004 	addi	r5,r5,-26176
 508038c:	01800504 	movi	r6,20
 5080390:	50822b40 	call	50822b4 <fprintf>
 5080394:	0000af06 	br	5080654 <alt_uCOSIIErrorHandler+0x44c>
 5080398:	00814374 	movhi	r2,1293
 508039c:	10860504 	addi	r2,r2,6164
 50803a0:	10800017 	ldw	r2,0(r2)
 50803a4:	11c00317 	ldw	r7,12(r2)
 50803a8:	01014374 	movhi	r4,1293
 50803ac:	21267d04 	addi	r4,r4,-26124
 50803b0:	01400044 	movi	r5,1
 50803b4:	01800a04 	movi	r6,40
 50803b8:	50823b00 	call	50823b0 <fwrite>
 50803bc:	00814374 	movhi	r2,1293
 50803c0:	10860504 	addi	r2,r2,6164
 50803c4:	10800017 	ldw	r2,0(r2)
 50803c8:	11000317 	ldw	r4,12(r2)
 50803cc:	01414374 	movhi	r5,1293
 50803d0:	29668804 	addi	r5,r5,-26080
 50803d4:	01800284 	movi	r6,10
 50803d8:	50822b40 	call	50822b4 <fprintf>
 50803dc:	00009d06 	br	5080654 <alt_uCOSIIErrorHandler+0x44c>
 50803e0:	e03ffb15 	stw	zero,-20(fp)
 50803e4:	00814374 	movhi	r2,1293
 50803e8:	10860504 	addi	r2,r2,6164
 50803ec:	10800017 	ldw	r2,0(r2)
 50803f0:	11c00317 	ldw	r7,12(r2)
 50803f4:	01014374 	movhi	r4,1293
 50803f8:	21269104 	addi	r4,r4,-26044
 50803fc:	01400044 	movi	r5,1
 5080400:	01800c84 	movi	r6,50
 5080404:	50823b00 	call	50823b0 <fwrite>
 5080408:	00009206 	br	5080654 <alt_uCOSIIErrorHandler+0x44c>
 508040c:	00800044 	movi	r2,1
 5080410:	e0bffb15 	stw	r2,-20(fp)
 5080414:	00814374 	movhi	r2,1293
 5080418:	10860504 	addi	r2,r2,6164
 508041c:	10800017 	ldw	r2,0(r2)
 5080420:	11c00317 	ldw	r7,12(r2)
 5080424:	01014374 	movhi	r4,1293
 5080428:	21269e04 	addi	r4,r4,-25992
 508042c:	01400044 	movi	r5,1
 5080430:	01801244 	movi	r6,73
 5080434:	50823b00 	call	50823b0 <fwrite>
 5080438:	00008606 	br	5080654 <alt_uCOSIIErrorHandler+0x44c>
 508043c:	00814374 	movhi	r2,1293
 5080440:	10860504 	addi	r2,r2,6164
 5080444:	10800017 	ldw	r2,0(r2)
 5080448:	11c00317 	ldw	r7,12(r2)
 508044c:	01014374 	movhi	r4,1293
 5080450:	2126b104 	addi	r4,r4,-25916
 5080454:	01400044 	movi	r5,1
 5080458:	01800c44 	movi	r6,49
 508045c:	50823b00 	call	50823b0 <fwrite>
 5080460:	00007c06 	br	5080654 <alt_uCOSIIErrorHandler+0x44c>
 5080464:	00800044 	movi	r2,1
 5080468:	e0bffb15 	stw	r2,-20(fp)
 508046c:	00814374 	movhi	r2,1293
 5080470:	10860504 	addi	r2,r2,6164
 5080474:	10800017 	ldw	r2,0(r2)
 5080478:	11c00317 	ldw	r7,12(r2)
 508047c:	01014374 	movhi	r4,1293
 5080480:	2126be04 	addi	r4,r4,-25864
 5080484:	01400044 	movi	r5,1
 5080488:	01800a44 	movi	r6,41
 508048c:	50823b00 	call	50823b0 <fwrite>
 5080490:	00007006 	br	5080654 <alt_uCOSIIErrorHandler+0x44c>
 5080494:	e03ffb15 	stw	zero,-20(fp)
 5080498:	00814374 	movhi	r2,1293
 508049c:	10860504 	addi	r2,r2,6164
 50804a0:	10800017 	ldw	r2,0(r2)
 50804a4:	11c00317 	ldw	r7,12(r2)
 50804a8:	01014374 	movhi	r4,1293
 50804ac:	2126c904 	addi	r4,r4,-25820
 50804b0:	01400044 	movi	r5,1
 50804b4:	01800a04 	movi	r6,40
 50804b8:	50823b00 	call	50823b0 <fwrite>
 50804bc:	00006506 	br	5080654 <alt_uCOSIIErrorHandler+0x44c>
 50804c0:	00814374 	movhi	r2,1293
 50804c4:	10860504 	addi	r2,r2,6164
 50804c8:	10800017 	ldw	r2,0(r2)
 50804cc:	11c00317 	ldw	r7,12(r2)
 50804d0:	01014374 	movhi	r4,1293
 50804d4:	2126d404 	addi	r4,r4,-25776
 50804d8:	01400044 	movi	r5,1
 50804dc:	01800b04 	movi	r6,44
 50804e0:	50823b00 	call	50823b0 <fwrite>
 50804e4:	00005b06 	br	5080654 <alt_uCOSIIErrorHandler+0x44c>
 50804e8:	00814374 	movhi	r2,1293
 50804ec:	10860504 	addi	r2,r2,6164
 50804f0:	10800017 	ldw	r2,0(r2)
 50804f4:	11c00317 	ldw	r7,12(r2)
 50804f8:	01014374 	movhi	r4,1293
 50804fc:	2126e004 	addi	r4,r4,-25728
 5080500:	01400044 	movi	r5,1
 5080504:	01800884 	movi	r6,34
 5080508:	50823b00 	call	50823b0 <fwrite>
 508050c:	00005106 	br	5080654 <alt_uCOSIIErrorHandler+0x44c>
 5080510:	e03ffb15 	stw	zero,-20(fp)
 5080514:	00814374 	movhi	r2,1293
 5080518:	10860504 	addi	r2,r2,6164
 508051c:	10800017 	ldw	r2,0(r2)
 5080520:	11c00317 	ldw	r7,12(r2)
 5080524:	01014374 	movhi	r4,1293
 5080528:	2126e904 	addi	r4,r4,-25692
 508052c:	01400044 	movi	r5,1
 5080530:	01800bc4 	movi	r6,47
 5080534:	50823b00 	call	50823b0 <fwrite>
 5080538:	00004606 	br	5080654 <alt_uCOSIIErrorHandler+0x44c>
 508053c:	00814374 	movhi	r2,1293
 5080540:	10860504 	addi	r2,r2,6164
 5080544:	10800017 	ldw	r2,0(r2)
 5080548:	11c00317 	ldw	r7,12(r2)
 508054c:	01014374 	movhi	r4,1293
 5080550:	2126f504 	addi	r4,r4,-25644
 5080554:	01400044 	movi	r5,1
 5080558:	018009c4 	movi	r6,39
 508055c:	50823b00 	call	50823b0 <fwrite>
 5080560:	00003c06 	br	5080654 <alt_uCOSIIErrorHandler+0x44c>
 5080564:	e03ffb15 	stw	zero,-20(fp)
 5080568:	00814374 	movhi	r2,1293
 508056c:	10860504 	addi	r2,r2,6164
 5080570:	10800017 	ldw	r2,0(r2)
 5080574:	11c00317 	ldw	r7,12(r2)
 5080578:	01014374 	movhi	r4,1293
 508057c:	2126ff04 	addi	r4,r4,-25604
 5080580:	01400044 	movi	r5,1
 5080584:	01800a84 	movi	r6,42
 5080588:	50823b00 	call	50823b0 <fwrite>
 508058c:	00003106 	br	5080654 <alt_uCOSIIErrorHandler+0x44c>
 5080590:	00800044 	movi	r2,1
 5080594:	e0bffb15 	stw	r2,-20(fp)
 5080598:	00814374 	movhi	r2,1293
 508059c:	10860504 	addi	r2,r2,6164
 50805a0:	10800017 	ldw	r2,0(r2)
 50805a4:	11c00317 	ldw	r7,12(r2)
 50805a8:	01014374 	movhi	r4,1293
 50805ac:	21270a04 	addi	r4,r4,-25560
 50805b0:	01400044 	movi	r5,1
 50805b4:	01800c04 	movi	r6,48
 50805b8:	50823b00 	call	50823b0 <fwrite>
 50805bc:	00002506 	br	5080654 <alt_uCOSIIErrorHandler+0x44c>
 50805c0:	00800084 	movi	r2,2
 50805c4:	e0bffb15 	stw	r2,-20(fp)
 50805c8:	01014374 	movhi	r4,1293
 50805cc:	21271704 	addi	r4,r4,-25508
 50805d0:	50827b00 	call	50827b0 <printf>
 50805d4:	00814374 	movhi	r2,1293
 50805d8:	10860504 	addi	r2,r2,6164
 50805dc:	10800017 	ldw	r2,0(r2)
 50805e0:	11000317 	ldw	r4,12(r2)
 50805e4:	e1bffd17 	ldw	r6,-12(fp)
 50805e8:	01414374 	movhi	r5,1293
 50805ec:	29672704 	addi	r5,r5,-25444
 50805f0:	50822b40 	call	50822b4 <fprintf>
 50805f4:	00001706 	br	5080654 <alt_uCOSIIErrorHandler+0x44c>
 50805f8:	01014374 	movhi	r4,1293
 50805fc:	21273204 	addi	r4,r4,-25400
 5080600:	5082ad80 	call	5082ad8 <puts>
 5080604:	00814374 	movhi	r2,1293
 5080608:	10860504 	addi	r2,r2,6164
 508060c:	10800017 	ldw	r2,0(r2)
 5080610:	11c00317 	ldw	r7,12(r2)
 5080614:	01014374 	movhi	r4,1293
 5080618:	21274004 	addi	r4,r4,-25344
 508061c:	01400044 	movi	r5,1
 5080620:	01800404 	movi	r6,16
 5080624:	50823b00 	call	50823b0 <fwrite>
 5080628:	00814374 	movhi	r2,1293
 508062c:	10860504 	addi	r2,r2,6164
 5080630:	10800017 	ldw	r2,0(r2)
 5080634:	11000317 	ldw	r4,12(r2)
 5080638:	e1bffc03 	ldbu	r6,-16(fp)
 508063c:	01414374 	movhi	r5,1293
 5080640:	29674504 	addi	r5,r5,-25324
 5080644:	50822b40 	call	50822b4 <fprintf>
 5080648:	01014374 	movhi	r4,1293
 508064c:	21274a04 	addi	r4,r4,-25304
 5080650:	508279c0 	call	508279c <perror>
 5080654:	e0bffb17 	ldw	r2,-20(fp)
 5080658:	e0bfff15 	stw	r2,-4(fp)
 508065c:	e0ffff17 	ldw	r3,-4(fp)
 5080660:	18800060 	cmpeqi	r2,r3,1
 5080664:	1000071e 	bne	r2,zero,5080684 <alt_uCOSIIErrorHandler+0x47c>
 5080668:	e0ffff17 	ldw	r3,-4(fp)
 508066c:	18800070 	cmpltui	r2,r3,1
 5080670:	10003f1e 	bne	r2,zero,5080770 <alt_uCOSIIErrorHandler+0x568>
 5080674:	e0ffff17 	ldw	r3,-4(fp)
 5080678:	188000a0 	cmpeqi	r2,r3,2
 508067c:	10001d1e 	bne	r2,zero,50806f4 <alt_uCOSIIErrorHandler+0x4ec>
 5080680:	00005806 	br	50807e4 <alt_uCOSIIErrorHandler+0x5dc>
 5080684:	01014374 	movhi	r4,1293
 5080688:	21275804 	addi	r4,r4,-25248
 508068c:	50827b00 	call	50827b0 <printf>
 5080690:	00814374 	movhi	r2,1293
 5080694:	10860504 	addi	r2,r2,6164
 5080698:	10800017 	ldw	r2,0(r2)
 508069c:	11c00317 	ldw	r7,12(r2)
 50806a0:	01014374 	movhi	r4,1293
 50806a4:	21276504 	addi	r4,r4,-25196
 50806a8:	01400044 	movi	r5,1
 50806ac:	01800904 	movi	r6,36
 50806b0:	50823b00 	call	50823b0 <fwrite>
 50806b4:	00814374 	movhi	r2,1293
 50806b8:	10860504 	addi	r2,r2,6164
 50806bc:	10800017 	ldw	r2,0(r2)
 50806c0:	11c00317 	ldw	r7,12(r2)
 50806c4:	01014374 	movhi	r4,1293
 50806c8:	21276f04 	addi	r4,r4,-25156
 50806cc:	01400044 	movi	r5,1
 50806d0:	01800a04 	movi	r6,40
 50806d4:	50823b00 	call	50823b0 <fwrite>
 50806d8:	508e0940 	call	508e094 <OSSchedUnlock>
 50806dc:	01003fc4 	movi	r4,255
 50806e0:	50941640 	call	5094164 <OSTaskDel>
 50806e4:	e13ffc03 	ldbu	r4,-16(fp)
 50806e8:	000b883a 	mov	r5,zero
 50806ec:	50802080 	call	5080208 <alt_uCOSIIErrorHandler>
 50806f0:	00004806 	br	5080814 <alt_uCOSIIErrorHandler+0x60c>
 50806f4:	01014374 	movhi	r4,1293
 50806f8:	21277a04 	addi	r4,r4,-25112
 50806fc:	50827b00 	call	50827b0 <printf>
 5080700:	00814374 	movhi	r2,1293
 5080704:	10860504 	addi	r2,r2,6164
 5080708:	10800017 	ldw	r2,0(r2)
 508070c:	11c00317 	ldw	r7,12(r2)
 5080710:	01014374 	movhi	r4,1293
 5080714:	21278804 	addi	r4,r4,-25056
 5080718:	01400044 	movi	r5,1
 508071c:	01800984 	movi	r6,38
 5080720:	50823b00 	call	50823b0 <fwrite>
 5080724:	00814374 	movhi	r2,1293
 5080728:	10860504 	addi	r2,r2,6164
 508072c:	10800017 	ldw	r2,0(r2)
 5080730:	11c00317 	ldw	r7,12(r2)
 5080734:	01014374 	movhi	r4,1293
 5080738:	21279204 	addi	r4,r4,-25016
 508073c:	01400044 	movi	r5,1
 5080740:	01800bc4 	movi	r6,47
 5080744:	50823b00 	call	50823b0 <fwrite>
 5080748:	00814374 	movhi	r2,1293
 508074c:	10860504 	addi	r2,r2,6164
 5080750:	10800017 	ldw	r2,0(r2)
 5080754:	11c00317 	ldw	r7,12(r2)
 5080758:	01014374 	movhi	r4,1293
 508075c:	21279e04 	addi	r4,r4,-24968
 5080760:	01400044 	movi	r5,1
 5080764:	01800cc4 	movi	r6,51
 5080768:	50823b00 	call	50823b0 <fwrite>
 508076c:	003fff06 	br	508076c <alt_uCOSIIErrorHandler+0x564>
 5080770:	00814374 	movhi	r2,1293
 5080774:	10860504 	addi	r2,r2,6164
 5080778:	10800017 	ldw	r2,0(r2)
 508077c:	11c00317 	ldw	r7,12(r2)
 5080780:	01014374 	movhi	r4,1293
 5080784:	2127ab04 	addi	r4,r4,-24916
 5080788:	01400044 	movi	r5,1
 508078c:	01800904 	movi	r6,36
 5080790:	50823b00 	call	50823b0 <fwrite>
 5080794:	00814374 	movhi	r2,1293
 5080798:	10860504 	addi	r2,r2,6164
 508079c:	10800017 	ldw	r2,0(r2)
 50807a0:	11c00317 	ldw	r7,12(r2)
 50807a4:	01014374 	movhi	r4,1293
 50807a8:	2127b504 	addi	r4,r4,-24876
 50807ac:	01400044 	movi	r5,1
 50807b0:	01800c84 	movi	r6,50
 50807b4:	50823b00 	call	50823b0 <fwrite>
 50807b8:	00814374 	movhi	r2,1293
 50807bc:	10860504 	addi	r2,r2,6164
 50807c0:	10800017 	ldw	r2,0(r2)
 50807c4:	11c00317 	ldw	r7,12(r2)
 50807c8:	01014374 	movhi	r4,1293
 50807cc:	2127c204 	addi	r4,r4,-24824
 50807d0:	01400044 	movi	r5,1
 50807d4:	01800f84 	movi	r6,62
 50807d8:	50823b00 	call	50823b0 <fwrite>
 50807dc:	508e0940 	call	508e094 <OSSchedUnlock>
 50807e0:	00000d06 	br	5080818 <alt_uCOSIIErrorHandler+0x610>
 50807e4:	01014374 	movhi	r4,1293
 50807e8:	2127d204 	addi	r4,r4,-24760
 50807ec:	5082ad80 	call	5082ad8 <puts>
 50807f0:	00814374 	movhi	r2,1293
 50807f4:	10860504 	addi	r2,r2,6164
 50807f8:	10800017 	ldw	r2,0(r2)
 50807fc:	11c00317 	ldw	r7,12(r2)
 5080800:	01014374 	movhi	r4,1293
 5080804:	2127e004 	addi	r4,r4,-24704
 5080808:	01400044 	movi	r5,1
 508080c:	01800ac4 	movi	r6,43
 5080810:	50823b00 	call	50823b0 <fwrite>
 5080814:	003fff06 	br	5080814 <alt_uCOSIIErrorHandler+0x60c>
 5080818:	e037883a 	mov	sp,fp
 508081c:	dfc00117 	ldw	ra,4(sp)
 5080820:	df000017 	ldw	fp,0(sp)
 5080824:	dec00204 	addi	sp,sp,8
 5080828:	f800283a 	ret

0508082c <alt_NetworkErrorHandler>:
 508082c:	defffa04 	addi	sp,sp,-24
 5080830:	dfc00515 	stw	ra,20(sp)
 5080834:	df000415 	stw	fp,16(sp)
 5080838:	df000404 	addi	fp,sp,16
 508083c:	e17ffe15 	stw	r5,-8(fp)
 5080840:	e13ffd05 	stb	r4,-12(fp)
 5080844:	e0bffd03 	ldbu	r2,-12(fp)
 5080848:	1005003a 	cmpeq	r2,r2,zero
 508084c:	1000981e 	bne	r2,zero,5080ab0 <alt_NetworkErrorHandler+0x284>
 5080850:	00800084 	movi	r2,2
 5080854:	e0bffc15 	stw	r2,-16(fp)
 5080858:	508e0080 	call	508e008 <OSSchedLock>
 508085c:	e0bffd03 	ldbu	r2,-12(fp)
 5080860:	10803fd8 	cmpnei	r2,r2,255
 5080864:	1000111e 	bne	r2,zero,50808ac <alt_NetworkErrorHandler+0x80>
 5080868:	00800084 	movi	r2,2
 508086c:	e0bffc15 	stw	r2,-16(fp)
 5080870:	01014374 	movhi	r4,1293
 5080874:	2127eb04 	addi	r4,r4,-24660
 5080878:	50827b00 	call	50827b0 <printf>
 508087c:	00814374 	movhi	r2,1293
 5080880:	10860504 	addi	r2,r2,6164
 5080884:	10800017 	ldw	r2,0(r2)
 5080888:	11000317 	ldw	r4,12(r2)
 508088c:	e1bffe17 	ldw	r6,-8(fp)
 5080890:	01414374 	movhi	r5,1293
 5080894:	2967fa04 	addi	r5,r5,-24600
 5080898:	50822b40 	call	50822b4 <fprintf>
 508089c:	01014374 	movhi	r4,1293
 50808a0:	2127fe04 	addi	r4,r4,-24584
 50808a4:	508279c0 	call	508279c <perror>
 50808a8:	00001006 	br	50808ec <alt_NetworkErrorHandler+0xc0>
 50808ac:	00800044 	movi	r2,1
 50808b0:	e0bffc15 	stw	r2,-16(fp)
 50808b4:	01014374 	movhi	r4,1293
 50808b8:	21280404 	addi	r4,r4,-24560
 50808bc:	5082ad80 	call	5082ad8 <puts>
 50808c0:	00814374 	movhi	r2,1293
 50808c4:	10860504 	addi	r2,r2,6164
 50808c8:	10800017 	ldw	r2,0(r2)
 50808cc:	11000317 	ldw	r4,12(r2)
 50808d0:	e1bffd03 	ldbu	r6,-12(fp)
 50808d4:	01414374 	movhi	r5,1293
 50808d8:	29680a04 	addi	r5,r5,-24536
 50808dc:	50822b40 	call	50822b4 <fprintf>
 50808e0:	01014374 	movhi	r4,1293
 50808e4:	2127fe04 	addi	r4,r4,-24584
 50808e8:	508279c0 	call	508279c <perror>
 50808ec:	e0bffc17 	ldw	r2,-16(fp)
 50808f0:	e0bfff15 	stw	r2,-4(fp)
 50808f4:	e0ffff17 	ldw	r3,-4(fp)
 50808f8:	18800060 	cmpeqi	r2,r3,1
 50808fc:	1000071e 	bne	r2,zero,508091c <alt_NetworkErrorHandler+0xf0>
 5080900:	e0ffff17 	ldw	r3,-4(fp)
 5080904:	18800070 	cmpltui	r2,r3,1
 5080908:	10003f1e 	bne	r2,zero,5080a08 <alt_NetworkErrorHandler+0x1dc>
 508090c:	e0ffff17 	ldw	r3,-4(fp)
 5080910:	188000a0 	cmpeqi	r2,r3,2
 5080914:	10001d1e 	bne	r2,zero,508098c <alt_NetworkErrorHandler+0x160>
 5080918:	00005806 	br	5080a7c <alt_NetworkErrorHandler+0x250>
 508091c:	01014374 	movhi	r4,1293
 5080920:	21281104 	addi	r4,r4,-24508
 5080924:	50827b00 	call	50827b0 <printf>
 5080928:	00814374 	movhi	r2,1293
 508092c:	10860504 	addi	r2,r2,6164
 5080930:	10800017 	ldw	r2,0(r2)
 5080934:	11c00317 	ldw	r7,12(r2)
 5080938:	01014374 	movhi	r4,1293
 508093c:	21281d04 	addi	r4,r4,-24460
 5080940:	01400044 	movi	r5,1
 5080944:	018007c4 	movi	r6,31
 5080948:	50823b00 	call	50823b0 <fwrite>
 508094c:	00814374 	movhi	r2,1293
 5080950:	10860504 	addi	r2,r2,6164
 5080954:	10800017 	ldw	r2,0(r2)
 5080958:	11c00317 	ldw	r7,12(r2)
 508095c:	01014374 	movhi	r4,1293
 5080960:	21282504 	addi	r4,r4,-24428
 5080964:	01400044 	movi	r5,1
 5080968:	018008c4 	movi	r6,35
 508096c:	50823b00 	call	50823b0 <fwrite>
 5080970:	508e0940 	call	508e094 <OSSchedUnlock>
 5080974:	01003fc4 	movi	r4,255
 5080978:	50941640 	call	5094164 <OSTaskDel>
 508097c:	e13ffd03 	ldbu	r4,-12(fp)
 5080980:	000b883a 	mov	r5,zero
 5080984:	50802080 	call	5080208 <alt_uCOSIIErrorHandler>
 5080988:	00004806 	br	5080aac <alt_NetworkErrorHandler+0x280>
 508098c:	01014374 	movhi	r4,1293
 5080990:	21282e04 	addi	r4,r4,-24392
 5080994:	50827b00 	call	50827b0 <printf>
 5080998:	00814374 	movhi	r2,1293
 508099c:	10860504 	addi	r2,r2,6164
 50809a0:	10800017 	ldw	r2,0(r2)
 50809a4:	11c00317 	ldw	r7,12(r2)
 50809a8:	01014374 	movhi	r4,1293
 50809ac:	21283a04 	addi	r4,r4,-24344
 50809b0:	01400044 	movi	r5,1
 50809b4:	01800884 	movi	r6,34
 50809b8:	50823b00 	call	50823b0 <fwrite>
 50809bc:	00814374 	movhi	r2,1293
 50809c0:	10860504 	addi	r2,r2,6164
 50809c4:	10800017 	ldw	r2,0(r2)
 50809c8:	11c00317 	ldw	r7,12(r2)
 50809cc:	01014374 	movhi	r4,1293
 50809d0:	21284304 	addi	r4,r4,-24308
 50809d4:	01400044 	movi	r5,1
 50809d8:	01800a84 	movi	r6,42
 50809dc:	50823b00 	call	50823b0 <fwrite>
 50809e0:	00814374 	movhi	r2,1293
 50809e4:	10860504 	addi	r2,r2,6164
 50809e8:	10800017 	ldw	r2,0(r2)
 50809ec:	11c00317 	ldw	r7,12(r2)
 50809f0:	01014374 	movhi	r4,1293
 50809f4:	21284e04 	addi	r4,r4,-24264
 50809f8:	01400044 	movi	r5,1
 50809fc:	01800b84 	movi	r6,46
 5080a00:	50823b00 	call	50823b0 <fwrite>
 5080a04:	003fff06 	br	5080a04 <alt_NetworkErrorHandler+0x1d8>
 5080a08:	00814374 	movhi	r2,1293
 5080a0c:	10860504 	addi	r2,r2,6164
 5080a10:	10800017 	ldw	r2,0(r2)
 5080a14:	11c00317 	ldw	r7,12(r2)
 5080a18:	01014374 	movhi	r4,1293
 5080a1c:	21285a04 	addi	r4,r4,-24216
 5080a20:	01400044 	movi	r5,1
 5080a24:	01800804 	movi	r6,32
 5080a28:	50823b00 	call	50823b0 <fwrite>
 5080a2c:	00814374 	movhi	r2,1293
 5080a30:	10860504 	addi	r2,r2,6164
 5080a34:	10800017 	ldw	r2,0(r2)
 5080a38:	11c00317 	ldw	r7,12(r2)
 5080a3c:	01014374 	movhi	r4,1293
 5080a40:	21286304 	addi	r4,r4,-24180
 5080a44:	01400044 	movi	r5,1
 5080a48:	01800d84 	movi	r6,54
 5080a4c:	50823b00 	call	50823b0 <fwrite>
 5080a50:	00814374 	movhi	r2,1293
 5080a54:	10860504 	addi	r2,r2,6164
 5080a58:	10800017 	ldw	r2,0(r2)
 5080a5c:	11c00317 	ldw	r7,12(r2)
 5080a60:	01014374 	movhi	r4,1293
 5080a64:	21287104 	addi	r4,r4,-24124
 5080a68:	01400044 	movi	r5,1
 5080a6c:	01800e44 	movi	r6,57
 5080a70:	50823b00 	call	50823b0 <fwrite>
 5080a74:	508e0940 	call	508e094 <OSSchedUnlock>
 5080a78:	00000d06 	br	5080ab0 <alt_NetworkErrorHandler+0x284>
 5080a7c:	01014374 	movhi	r4,1293
 5080a80:	21288004 	addi	r4,r4,-24064
 5080a84:	5082ad80 	call	5082ad8 <puts>
 5080a88:	00814374 	movhi	r2,1293
 5080a8c:	10860504 	addi	r2,r2,6164
 5080a90:	10800017 	ldw	r2,0(r2)
 5080a94:	11c00317 	ldw	r7,12(r2)
 5080a98:	01014374 	movhi	r4,1293
 5080a9c:	21288d04 	addi	r4,r4,-24012
 5080aa0:	01400044 	movi	r5,1
 5080aa4:	01800984 	movi	r6,38
 5080aa8:	50823b00 	call	50823b0 <fwrite>
 5080aac:	003fff06 	br	5080aac <alt_NetworkErrorHandler+0x280>
 5080ab0:	e037883a 	mov	sp,fp
 5080ab4:	dfc00117 	ldw	ra,4(sp)
 5080ab8:	df000017 	ldw	fp,0(sp)
 5080abc:	dec00204 	addi	sp,sp,8
 5080ac0:	f800283a 	ret

05080ac4 <alt_SSSErrorHandler>:
 5080ac4:	defff804 	addi	sp,sp,-32
 5080ac8:	dfc00715 	stw	ra,28(sp)
 5080acc:	df000615 	stw	fp,24(sp)
 5080ad0:	df000604 	addi	fp,sp,24
 5080ad4:	e17ffc15 	stw	r5,-16(fp)
 5080ad8:	e13ffb05 	stb	r4,-20(fp)
 5080adc:	e0bffb03 	ldbu	r2,-20(fp)
 5080ae0:	1005003a 	cmpeq	r2,r2,zero
 5080ae4:	1000ad1e 	bne	r2,zero,5080d9c <alt_SSSErrorHandler+0x2d8>
 5080ae8:	e0bffb03 	ldbu	r2,-20(fp)
 5080aec:	1004c03a 	cmpne	r2,r2,zero
 5080af0:	1000021e 	bne	r2,zero,5080afc <alt_SSSErrorHandler+0x38>
 5080af4:	e03ffe15 	stw	zero,-8(fp)
 5080af8:	00000206 	br	5080b04 <alt_SSSErrorHandler+0x40>
 5080afc:	00800084 	movi	r2,2
 5080b00:	e0bffe15 	stw	r2,-8(fp)
 5080b04:	e0fffe17 	ldw	r3,-8(fp)
 5080b08:	e0fffa15 	stw	r3,-24(fp)
 5080b0c:	508e0080 	call	508e008 <OSSchedLock>
 5080b10:	e0bffb03 	ldbu	r2,-20(fp)
 5080b14:	e0bffd15 	stw	r2,-12(fp)
 5080b18:	e0fffd17 	ldw	r3,-12(fp)
 5080b1c:	188007a0 	cmpeqi	r2,r3,30
 5080b20:	1000121e 	bne	r2,zero,5080b6c <alt_SSSErrorHandler+0xa8>
 5080b24:	e0fffd17 	ldw	r3,-12(fp)
 5080b28:	18803fe0 	cmpeqi	r2,r3,255
 5080b2c:	1000011e 	bne	r2,zero,5080b34 <alt_SSSErrorHandler+0x70>
 5080b30:	00001906 	br	5080b98 <alt_SSSErrorHandler+0xd4>
 5080b34:	00800084 	movi	r2,2
 5080b38:	e0bffa15 	stw	r2,-24(fp)
 5080b3c:	01014374 	movhi	r4,1293
 5080b40:	21289704 	addi	r4,r4,-23972
 5080b44:	50827b00 	call	50827b0 <printf>
 5080b48:	00814374 	movhi	r2,1293
 5080b4c:	10860504 	addi	r2,r2,6164
 5080b50:	10800017 	ldw	r2,0(r2)
 5080b54:	11000317 	ldw	r4,12(r2)
 5080b58:	e1bffc17 	ldw	r6,-16(fp)
 5080b5c:	01414374 	movhi	r5,1293
 5080b60:	2968a504 	addi	r5,r5,-23916
 5080b64:	50822b40 	call	50822b4 <fprintf>
 5080b68:	00001b06 	br	5080bd8 <alt_SSSErrorHandler+0x114>
 5080b6c:	e03ffa15 	stw	zero,-24(fp)
 5080b70:	00814374 	movhi	r2,1293
 5080b74:	10860504 	addi	r2,r2,6164
 5080b78:	10800017 	ldw	r2,0(r2)
 5080b7c:	11c00317 	ldw	r7,12(r2)
 5080b80:	01014374 	movhi	r4,1293
 5080b84:	2128a804 	addi	r4,r4,-23904
 5080b88:	01400044 	movi	r5,1
 5080b8c:	01800c84 	movi	r6,50
 5080b90:	50823b00 	call	50823b0 <fwrite>
 5080b94:	00001006 	br	5080bd8 <alt_SSSErrorHandler+0x114>
 5080b98:	00800084 	movi	r2,2
 5080b9c:	e0bffa15 	stw	r2,-24(fp)
 5080ba0:	01014374 	movhi	r4,1293
 5080ba4:	2128b504 	addi	r4,r4,-23852
 5080ba8:	5082ad80 	call	5082ad8 <puts>
 5080bac:	00814374 	movhi	r2,1293
 5080bb0:	10860504 	addi	r2,r2,6164
 5080bb4:	10800017 	ldw	r2,0(r2)
 5080bb8:	11000317 	ldw	r4,12(r2)
 5080bbc:	e1bffb03 	ldbu	r6,-20(fp)
 5080bc0:	01414374 	movhi	r5,1293
 5080bc4:	2968ba04 	addi	r5,r5,-23832
 5080bc8:	50822b40 	call	50822b4 <fprintf>
 5080bcc:	01014374 	movhi	r4,1293
 5080bd0:	2128c004 	addi	r4,r4,-23808
 5080bd4:	508279c0 	call	508279c <perror>
 5080bd8:	e0bffa17 	ldw	r2,-24(fp)
 5080bdc:	e0bfff15 	stw	r2,-4(fp)
 5080be0:	e0ffff17 	ldw	r3,-4(fp)
 5080be4:	18800060 	cmpeqi	r2,r3,1
 5080be8:	1000071e 	bne	r2,zero,5080c08 <alt_SSSErrorHandler+0x144>
 5080bec:	e0ffff17 	ldw	r3,-4(fp)
 5080bf0:	18800070 	cmpltui	r2,r3,1
 5080bf4:	10003f1e 	bne	r2,zero,5080cf4 <alt_SSSErrorHandler+0x230>
 5080bf8:	e0ffff17 	ldw	r3,-4(fp)
 5080bfc:	188000a0 	cmpeqi	r2,r3,2
 5080c00:	10001d1e 	bne	r2,zero,5080c78 <alt_SSSErrorHandler+0x1b4>
 5080c04:	00005806 	br	5080d68 <alt_SSSErrorHandler+0x2a4>
 5080c08:	01014374 	movhi	r4,1293
 5080c0c:	2128c504 	addi	r4,r4,-23788
 5080c10:	50827b00 	call	50827b0 <printf>
 5080c14:	00814374 	movhi	r2,1293
 5080c18:	10860504 	addi	r2,r2,6164
 5080c1c:	10800017 	ldw	r2,0(r2)
 5080c20:	11c00317 	ldw	r7,12(r2)
 5080c24:	01014374 	movhi	r4,1293
 5080c28:	2128d004 	addi	r4,r4,-23744
 5080c2c:	01400044 	movi	r5,1
 5080c30:	018006c4 	movi	r6,27
 5080c34:	50823b00 	call	50823b0 <fwrite>
 5080c38:	00814374 	movhi	r2,1293
 5080c3c:	10860504 	addi	r2,r2,6164
 5080c40:	10800017 	ldw	r2,0(r2)
 5080c44:	11c00317 	ldw	r7,12(r2)
 5080c48:	01014374 	movhi	r4,1293
 5080c4c:	2128d704 	addi	r4,r4,-23716
 5080c50:	01400044 	movi	r5,1
 5080c54:	018007c4 	movi	r6,31
 5080c58:	50823b00 	call	50823b0 <fwrite>
 5080c5c:	508e0940 	call	508e094 <OSSchedUnlock>
 5080c60:	01003fc4 	movi	r4,255
 5080c64:	50941640 	call	5094164 <OSTaskDel>
 5080c68:	e13ffb03 	ldbu	r4,-20(fp)
 5080c6c:	000b883a 	mov	r5,zero
 5080c70:	50802080 	call	5080208 <alt_uCOSIIErrorHandler>
 5080c74:	00004806 	br	5080d98 <alt_SSSErrorHandler+0x2d4>
 5080c78:	01014374 	movhi	r4,1293
 5080c7c:	2128df04 	addi	r4,r4,-23684
 5080c80:	50827b00 	call	50827b0 <printf>
 5080c84:	00814374 	movhi	r2,1293
 5080c88:	10860504 	addi	r2,r2,6164
 5080c8c:	10800017 	ldw	r2,0(r2)
 5080c90:	11c00317 	ldw	r7,12(r2)
 5080c94:	01014374 	movhi	r4,1293
 5080c98:	2128ea04 	addi	r4,r4,-23640
 5080c9c:	01400044 	movi	r5,1
 5080ca0:	01800784 	movi	r6,30
 5080ca4:	50823b00 	call	50823b0 <fwrite>
 5080ca8:	00814374 	movhi	r2,1293
 5080cac:	10860504 	addi	r2,r2,6164
 5080cb0:	10800017 	ldw	r2,0(r2)
 5080cb4:	11c00317 	ldw	r7,12(r2)
 5080cb8:	01014374 	movhi	r4,1293
 5080cbc:	2128f204 	addi	r4,r4,-23608
 5080cc0:	01400044 	movi	r5,1
 5080cc4:	01800984 	movi	r6,38
 5080cc8:	50823b00 	call	50823b0 <fwrite>
 5080ccc:	00814374 	movhi	r2,1293
 5080cd0:	10860504 	addi	r2,r2,6164
 5080cd4:	10800017 	ldw	r2,0(r2)
 5080cd8:	11c00317 	ldw	r7,12(r2)
 5080cdc:	01014374 	movhi	r4,1293
 5080ce0:	2128fc04 	addi	r4,r4,-23568
 5080ce4:	01400044 	movi	r5,1
 5080ce8:	01800a84 	movi	r6,42
 5080cec:	50823b00 	call	50823b0 <fwrite>
 5080cf0:	003fff06 	br	5080cf0 <alt_SSSErrorHandler+0x22c>
 5080cf4:	00814374 	movhi	r2,1293
 5080cf8:	10860504 	addi	r2,r2,6164
 5080cfc:	10800017 	ldw	r2,0(r2)
 5080d00:	11c00317 	ldw	r7,12(r2)
 5080d04:	01014374 	movhi	r4,1293
 5080d08:	21290704 	addi	r4,r4,-23524
 5080d0c:	01400044 	movi	r5,1
 5080d10:	018006c4 	movi	r6,27
 5080d14:	50823b00 	call	50823b0 <fwrite>
 5080d18:	00814374 	movhi	r2,1293
 5080d1c:	10860504 	addi	r2,r2,6164
 5080d20:	10800017 	ldw	r2,0(r2)
 5080d24:	11c00317 	ldw	r7,12(r2)
 5080d28:	01014374 	movhi	r4,1293
 5080d2c:	21290e04 	addi	r4,r4,-23496
 5080d30:	01400044 	movi	r5,1
 5080d34:	01800f44 	movi	r6,61
 5080d38:	50823b00 	call	50823b0 <fwrite>
 5080d3c:	00814374 	movhi	r2,1293
 5080d40:	10860504 	addi	r2,r2,6164
 5080d44:	10800017 	ldw	r2,0(r2)
 5080d48:	11c00317 	ldw	r7,12(r2)
 5080d4c:	01014374 	movhi	r4,1293
 5080d50:	21291e04 	addi	r4,r4,-23432
 5080d54:	01400044 	movi	r5,1
 5080d58:	01800b84 	movi	r6,46
 5080d5c:	50823b00 	call	50823b0 <fwrite>
 5080d60:	508e0940 	call	508e094 <OSSchedUnlock>
 5080d64:	00000d06 	br	5080d9c <alt_SSSErrorHandler+0x2d8>
 5080d68:	01014374 	movhi	r4,1293
 5080d6c:	21292a04 	addi	r4,r4,-23384
 5080d70:	5082ad80 	call	5082ad8 <puts>
 5080d74:	00814374 	movhi	r2,1293
 5080d78:	10860504 	addi	r2,r2,6164
 5080d7c:	10800017 	ldw	r2,0(r2)
 5080d80:	11c00317 	ldw	r7,12(r2)
 5080d84:	01014374 	movhi	r4,1293
 5080d88:	21293604 	addi	r4,r4,-23336
 5080d8c:	01400044 	movi	r5,1
 5080d90:	01800844 	movi	r6,33
 5080d94:	50823b00 	call	50823b0 <fwrite>
 5080d98:	003fff06 	br	5080d98 <alt_SSSErrorHandler+0x2d4>
 5080d9c:	e037883a 	mov	sp,fp
 5080da0:	dfc00117 	ldw	ra,4(sp)
 5080da4:	df000017 	ldw	fp,0(sp)
 5080da8:	dec00204 	addi	sp,sp,8
 5080dac:	f800283a 	ret

05080db0 <SSSInitialTask>:
 5080db0:	defffc04 	addi	sp,sp,-16
 5080db4:	dfc00315 	stw	ra,12(sp)
 5080db8:	df000215 	stw	fp,8(sp)
 5080dbc:	df000204 	addi	fp,sp,8
 5080dc0:	e13fff15 	stw	r4,-4(fp)
 5080dc4:	50a37040 	call	50a3704 <alt_iniche_init>
 5080dc8:	509e9340 	call	509e934 <netmain>
 5080dcc:	00000206 	br	5080dd8 <SSSInitialTask+0x28>
 5080dd0:	01000084 	movi	r4,2
 5080dd4:	509525c0 	call	509525c <OSTimeDly>
 5080dd8:	00814374 	movhi	r2,1293
 5080ddc:	108e9604 	addi	r2,r2,14936
 5080de0:	10800017 	ldw	r2,0(r2)
 5080de4:	1005003a 	cmpeq	r2,r2,zero
 5080de8:	103ff91e 	bne	r2,zero,5080dd0 <SSSInitialTask+0x20>
 5080dec:	01014374 	movhi	r4,1293
 5080df0:	21294504 	addi	r4,r4,-23276
 5080df4:	5082ad80 	call	5082ad8 <puts>
 5080df8:	01014374 	movhi	r4,1293
 5080dfc:	213e5204 	addi	r4,r4,-1720
 5080e00:	50a33c40 	call	50a33c4 <TK_NEWTASK>
 5080e04:	508194c0 	call	508194c <SSSCreateOSDataStructs>
 5080e08:	50819f40 	call	50819f4 <SSSCreateTasks>
 5080e0c:	01003fc4 	movi	r4,255
 5080e10:	50941640 	call	5094164 <OSTaskDel>
 5080e14:	e0bffe05 	stb	r2,-8(fp)
 5080e18:	e13ffe03 	ldbu	r4,-8(fp)
 5080e1c:	000b883a 	mov	r5,zero
 5080e20:	50802080 	call	5080208 <alt_uCOSIIErrorHandler>
 5080e24:	003fff06 	br	5080e24 <SSSInitialTask+0x74>

05080e28 <main>:
 5080e28:	defff504 	addi	sp,sp,-44
 5080e2c:	dfc00a15 	stw	ra,40(sp)
 5080e30:	df000915 	stw	fp,36(sp)
 5080e34:	df000904 	addi	fp,sp,36
 5080e38:	e13ffd15 	stw	r4,-12(fp)
 5080e3c:	e17ffe15 	stw	r5,-8(fp)
 5080e40:	e1bfff15 	stw	r6,-4(fp)
 5080e44:	0009883a 	mov	r4,zero
 5080e48:	50957a00 	call	50957a0 <OSTimeSet>
 5080e4c:	01814374 	movhi	r6,1293
 5080e50:	31988b04 	addi	r6,r6,25132
 5080e54:	00800144 	movi	r2,5
 5080e58:	d8800015 	stw	r2,0(sp)
 5080e5c:	00814374 	movhi	r2,1293
 5080e60:	10908b04 	addi	r2,r2,16940
 5080e64:	d8800115 	stw	r2,4(sp)
 5080e68:	00820004 	movi	r2,2048
 5080e6c:	d8800215 	stw	r2,8(sp)
 5080e70:	d8000315 	stw	zero,12(sp)
 5080e74:	d8000415 	stw	zero,16(sp)
 5080e78:	01014234 	movhi	r4,1288
 5080e7c:	21036c04 	addi	r4,r4,3504
 5080e80:	000b883a 	mov	r5,zero
 5080e84:	01c00144 	movi	r7,5
 5080e88:	5093f640 	call	5093f64 <OSTaskCreateExt>
 5080e8c:	e0bffc05 	stb	r2,-16(fp)
 5080e90:	e13ffc03 	ldbu	r4,-16(fp)
 5080e94:	000b883a 	mov	r5,zero
 5080e98:	50802080 	call	5080208 <alt_uCOSIIErrorHandler>
 5080e9c:	508e1780 	call	508e178 <OSStart>
 5080ea0:	003fff06 	br	5080ea0 <main+0x78>

05080ea4 <led_bit_toggle>:
 5080ea4:	defffc04 	addi	sp,sp,-16
 5080ea8:	dfc00315 	stw	ra,12(sp)
 5080eac:	df000215 	stw	fp,8(sp)
 5080eb0:	df000204 	addi	fp,sp,8
 5080eb4:	e13fff0d 	sth	r4,-4(fp)
 5080eb8:	00814374 	movhi	r2,1293
 5080ebc:	108e6704 	addi	r2,r2,14748
 5080ec0:	11000017 	ldw	r4,0(r2)
 5080ec4:	e17ffe84 	addi	r5,fp,-6
 5080ec8:	5090be00 	call	5090be0 <OSFlagQuery>
 5080ecc:	e0bffe0d 	sth	r2,-8(fp)
 5080ed0:	e0bffe83 	ldbu	r2,-6(fp)
 5080ed4:	11003fcc 	andi	r4,r2,255
 5080ed8:	000b883a 	mov	r5,zero
 5080edc:	50802080 	call	5080208 <alt_uCOSIIErrorHandler>
 5080ee0:	e0ffff0b 	ldhu	r3,-4(fp)
 5080ee4:	e0bffe0b 	ldhu	r2,-8(fp)
 5080ee8:	1884703a 	and	r2,r3,r2
 5080eec:	10bfffcc 	andi	r2,r2,65535
 5080ef0:	1005003a 	cmpeq	r2,r2,zero
 5080ef4:	10000d1e 	bne	r2,zero,5080f2c <led_bit_toggle+0x88>
 5080ef8:	00814374 	movhi	r2,1293
 5080efc:	108e6704 	addi	r2,r2,14748
 5080f00:	11000017 	ldw	r4,0(r2)
 5080f04:	e17fff0b 	ldhu	r5,-4(fp)
 5080f08:	e1fffe84 	addi	r7,fp,-6
 5080f0c:	000d883a 	mov	r6,zero
 5080f10:	50908380 	call	5090838 <OSFlagPost>
 5080f14:	e0bffe0d 	sth	r2,-8(fp)
 5080f18:	e0bffe83 	ldbu	r2,-6(fp)
 5080f1c:	11003fcc 	andi	r4,r2,255
 5080f20:	000b883a 	mov	r5,zero
 5080f24:	50802080 	call	5080208 <alt_uCOSIIErrorHandler>
 5080f28:	00000c06 	br	5080f5c <led_bit_toggle+0xb8>
 5080f2c:	00814374 	movhi	r2,1293
 5080f30:	108e6704 	addi	r2,r2,14748
 5080f34:	11000017 	ldw	r4,0(r2)
 5080f38:	e17fff0b 	ldhu	r5,-4(fp)
 5080f3c:	e1fffe84 	addi	r7,fp,-6
 5080f40:	01800044 	movi	r6,1
 5080f44:	50908380 	call	5090838 <OSFlagPost>
 5080f48:	e0bffe0d 	sth	r2,-8(fp)
 5080f4c:	e0bffe83 	ldbu	r2,-6(fp)
 5080f50:	11003fcc 	andi	r4,r2,255
 5080f54:	000b883a 	mov	r5,zero
 5080f58:	50802080 	call	5080208 <alt_uCOSIIErrorHandler>
 5080f5c:	e0fffe0b 	ldhu	r3,-8(fp)
 5080f60:	00810034 	movhi	r2,1024
 5080f64:	10c00035 	stwio	r3,0(r2)
 5080f68:	e0bffe0b 	ldhu	r2,-8(fp)
 5080f6c:	11403fcc 	andi	r5,r2,255
 5080f70:	01014374 	movhi	r4,1293
 5080f74:	21294e04 	addi	r4,r4,-23240
 5080f78:	50827b00 	call	50827b0 <printf>
 5080f7c:	e037883a 	mov	sp,fp
 5080f80:	dfc00117 	ldw	ra,4(sp)
 5080f84:	df000017 	ldw	fp,0(sp)
 5080f88:	dec00204 	addi	sp,sp,8
 5080f8c:	f800283a 	ret

05080f90 <sevenseg_set_hex>:
 5080f90:	defffd04 	addi	sp,sp,-12
 5080f94:	df000215 	stw	fp,8(sp)
 5080f98:	df000204 	addi	fp,sp,8
 5080f9c:	e13fff05 	stb	r4,-4(fp)
 5080fa0:	e0bfff03 	ldbu	r2,-4(fp)
 5080fa4:	10c003cc 	andi	r3,r2,15
 5080fa8:	00814374 	movhi	r2,1293
 5080fac:	10be5804 	addi	r2,r2,-1696
 5080fb0:	10c5883a 	add	r2,r2,r3
 5080fb4:	10800003 	ldbu	r2,0(r2)
 5080fb8:	11003fcc 	andi	r4,r2,255
 5080fbc:	e0bfff03 	ldbu	r2,-4(fp)
 5080fc0:	1004d13a 	srli	r2,r2,4
 5080fc4:	10803fcc 	andi	r2,r2,255
 5080fc8:	10c003cc 	andi	r3,r2,15
 5080fcc:	00814374 	movhi	r2,1293
 5080fd0:	10be5804 	addi	r2,r2,-1696
 5080fd4:	10c5883a 	add	r2,r2,r3
 5080fd8:	10800003 	ldbu	r2,0(r2)
 5080fdc:	10803fcc 	andi	r2,r2,255
 5080fe0:	1004923a 	slli	r2,r2,8
 5080fe4:	2084b03a 	or	r2,r4,r2
 5080fe8:	e0bffe15 	stw	r2,-8(fp)
 5080fec:	e0fffe17 	ldw	r3,-8(fp)
 5080ff0:	00810034 	movhi	r2,1024
 5080ff4:	10800c04 	addi	r2,r2,48
 5080ff8:	10c00035 	stwio	r3,0(r2)
 5080ffc:	e037883a 	mov	sp,fp
 5081000:	df000017 	ldw	fp,0(sp)
 5081004:	dec00104 	addi	sp,sp,4
 5081008:	f800283a 	ret

0508100c <LED7SegLightshowTask>:
 508100c:	defffd04 	addi	sp,sp,-12
 5081010:	dfc00215 	stw	ra,8(sp)
 5081014:	df000115 	stw	fp,4(sp)
 5081018:	df000104 	addi	fp,sp,4
 508101c:	0009883a 	mov	r4,zero
 5081020:	000b883a 	mov	r5,zero
 5081024:	000d883a 	mov	r6,zero
 5081028:	01c01904 	movi	r7,100
 508102c:	50953a80 	call	50953a8 <OSTimeDlyHMSM>
 5081030:	00814374 	movhi	r2,1293
 5081034:	108e6604 	addi	r2,r2,14744
 5081038:	11000017 	ldw	r4,0(r2)
 508103c:	000b883a 	mov	r5,zero
 5081040:	e1bfff04 	addi	r6,fp,-4
 5081044:	50930c80 	call	50930c8 <OSSemPend>
 5081048:	e0bfff03 	ldbu	r2,-4(fp)
 508104c:	11003fcc 	andi	r4,r2,255
 5081050:	000b883a 	mov	r5,zero
 5081054:	50802080 	call	5080208 <alt_uCOSIIErrorHandler>
 5081058:	d0e85d17 	ldw	r3,-24204(gp)
 508105c:	1805883a 	mov	r2,r3
 5081060:	11003fcc 	andi	r4,r2,255
 5081064:	18800044 	addi	r2,r3,1
 5081068:	d0a85d15 	stw	r2,-24204(gp)
 508106c:	5080f900 	call	5080f90 <sevenseg_set_hex>
 5081070:	d0a85d17 	ldw	r2,-24204(gp)
 5081074:	10804030 	cmpltui	r2,r2,256
 5081078:	1000011e 	bne	r2,zero,5081080 <LED7SegLightshowTask+0x74>
 508107c:	d0285d15 	stw	zero,-24204(gp)
 5081080:	00814374 	movhi	r2,1293
 5081084:	108e6604 	addi	r2,r2,14744
 5081088:	11000017 	ldw	r4,0(r2)
 508108c:	50934c00 	call	50934c0 <OSSemPost>
 5081090:	e0bfff05 	stb	r2,-4(fp)
 5081094:	e0bfff03 	ldbu	r2,-4(fp)
 5081098:	11003fcc 	andi	r4,r2,255
 508109c:	000b883a 	mov	r5,zero
 50810a0:	50802080 	call	5080208 <alt_uCOSIIErrorHandler>
 50810a4:	003fdd06 	br	508101c <LED7SegLightshowTask+0x10>

050810a8 <LEDManagementTask>:
 50810a8:	defffa04 	addi	sp,sp,-24
 50810ac:	dfc00515 	stw	ra,20(sp)
 50810b0:	df000415 	stw	fp,16(sp)
 50810b4:	df000404 	addi	fp,sp,16
 50810b8:	e03ffc8d 	sth	zero,-14(fp)
 50810bc:	00800044 	movi	r2,1
 50810c0:	e0bffc05 	stb	r2,-16(fp)
 50810c4:	00000006 	br	50810c8 <LEDManagementTask+0x20>
 50810c8:	00814374 	movhi	r2,1293
 50810cc:	108e6504 	addi	r2,r2,14740
 50810d0:	11000017 	ldw	r4,0(r2)
 50810d4:	e1bffe04 	addi	r6,fp,-8
 50810d8:	000b883a 	mov	r5,zero
 50810dc:	50920500 	call	5092050 <OSQPend>
 50810e0:	e0bffd15 	stw	r2,-12(fp)
 50810e4:	e0bffe03 	ldbu	r2,-8(fp)
 50810e8:	11003fcc 	andi	r4,r2,255
 50810ec:	000b883a 	mov	r5,zero
 50810f0:	50802080 	call	5080208 <alt_uCOSIIErrorHandler>
 50810f4:	e0bffd17 	ldw	r2,-12(fp)
 50810f8:	10bff404 	addi	r2,r2,-48
 50810fc:	e0bfff15 	stw	r2,-4(fp)
 5081100:	e0ffff17 	ldw	r3,-4(fp)
 5081104:	18800928 	cmpgeui	r2,r3,36
 5081108:	103fef1e 	bne	r2,zero,50810c8 <LEDManagementTask+0x20>
 508110c:	e13fff17 	ldw	r4,-4(fp)
 5081110:	e13fff17 	ldw	r4,-4(fp)
 5081114:	2105883a 	add	r2,r4,r4
 5081118:	1087883a 	add	r3,r2,r2
 508111c:	00814234 	movhi	r2,1288
 5081120:	10844c04 	addi	r2,r2,4400
 5081124:	1885883a 	add	r2,r3,r2
 5081128:	10800017 	ldw	r2,0(r2)
 508112c:	1000683a 	jmp	r2
 5081130:	050811c0 	call	50811c <OSCtxSw_SWITCH_PC+0x5080dc>
 5081134:	050811cc 	andi	r20,zero,8263
 5081138:	050811d8 	cmpnei	r20,zero,8263
 508113c:	050811e4 	muli	r20,zero,8263
 5081140:	050811f0 	cmpltui	r20,zero,8263
 5081144:	050811fc 	xorhi	r20,zero,8263
 5081148:	05081208 	cmpgei	r20,zero,8264
 508114c:	05081214 	movui	r20,8264
 5081150:	050810c8 	cmpgei	r20,zero,8259
 5081154:	050810c8 	cmpgei	r20,zero,8259
 5081158:	050810c8 	cmpgei	r20,zero,8259
 508115c:	050810c8 	cmpgei	r20,zero,8259
 5081160:	050810c8 	cmpgei	r20,zero,8259
 5081164:	050810c8 	cmpgei	r20,zero,8259
 5081168:	050810c8 	cmpgei	r20,zero,8259
 508116c:	050810c8 	cmpgei	r20,zero,8259
 5081170:	050810c8 	cmpgei	r20,zero,8259
 5081174:	050810c8 	cmpgei	r20,zero,8259
 5081178:	050810c8 	cmpgei	r20,zero,8259
 508117c:	050810c8 	cmpgei	r20,zero,8259
 5081180:	050810c8 	cmpgei	r20,zero,8259
 5081184:	050810c8 	cmpgei	r20,zero,8259
 5081188:	050810c8 	cmpgei	r20,zero,8259
 508118c:	050810c8 	cmpgei	r20,zero,8259
 5081190:	050810c8 	cmpgei	r20,zero,8259
 5081194:	050810c8 	cmpgei	r20,zero,8259
 5081198:	050810c8 	cmpgei	r20,zero,8259
 508119c:	050810c8 	cmpgei	r20,zero,8259
 50811a0:	050810c8 	cmpgei	r20,zero,8259
 50811a4:	050810c8 	cmpgei	r20,zero,8259
 50811a8:	050810c8 	cmpgei	r20,zero,8259
 50811ac:	050810c8 	cmpgei	r20,zero,8259
 50811b0:	050810c8 	cmpgei	r20,zero,8259
 50811b4:	050810c8 	cmpgei	r20,zero,8259
 50811b8:	050810c8 	cmpgei	r20,zero,8259
 50811bc:	05081220 	cmpeqi	r20,zero,8264
 50811c0:	01000044 	movi	r4,1
 50811c4:	5080ea40 	call	5080ea4 <led_bit_toggle>
 50811c8:	003fbf06 	br	50810c8 <LEDManagementTask+0x20>
 50811cc:	01000084 	movi	r4,2
 50811d0:	5080ea40 	call	5080ea4 <led_bit_toggle>
 50811d4:	003fbc06 	br	50810c8 <LEDManagementTask+0x20>
 50811d8:	01000104 	movi	r4,4
 50811dc:	5080ea40 	call	5080ea4 <led_bit_toggle>
 50811e0:	003fb906 	br	50810c8 <LEDManagementTask+0x20>
 50811e4:	01000204 	movi	r4,8
 50811e8:	5080ea40 	call	5080ea4 <led_bit_toggle>
 50811ec:	003fb606 	br	50810c8 <LEDManagementTask+0x20>
 50811f0:	01000404 	movi	r4,16
 50811f4:	5080ea40 	call	5080ea4 <led_bit_toggle>
 50811f8:	003fb306 	br	50810c8 <LEDManagementTask+0x20>
 50811fc:	01000804 	movi	r4,32
 5081200:	5080ea40 	call	5080ea4 <led_bit_toggle>
 5081204:	003fb006 	br	50810c8 <LEDManagementTask+0x20>
 5081208:	01001004 	movi	r4,64
 508120c:	5080ea40 	call	5080ea4 <led_bit_toggle>
 5081210:	003fad06 	br	50810c8 <LEDManagementTask+0x20>
 5081214:	01002004 	movi	r4,128
 5081218:	5080ea40 	call	5080ea4 <led_bit_toggle>
 508121c:	003faa06 	br	50810c8 <LEDManagementTask+0x20>
 5081220:	e0bffc03 	ldbu	r2,-16(fp)
 5081224:	1004c03a 	cmpne	r2,r2,zero
 5081228:	10000c1e 	bne	r2,zero,508125c <LEDManagementTask+0x1b4>
 508122c:	00814374 	movhi	r2,1293
 5081230:	108e6604 	addi	r2,r2,14744
 5081234:	11000017 	ldw	r4,0(r2)
 5081238:	50934c00 	call	50934c0 <OSSemPost>
 508123c:	e0bffe05 	stb	r2,-8(fp)
 5081240:	e0bffe03 	ldbu	r2,-8(fp)
 5081244:	11003fcc 	andi	r4,r2,255
 5081248:	000b883a 	mov	r5,zero
 508124c:	50802080 	call	5080208 <alt_uCOSIIErrorHandler>
 5081250:	00800044 	movi	r2,1
 5081254:	e0bffc05 	stb	r2,-16(fp)
 5081258:	003f9b06 	br	50810c8 <LEDManagementTask+0x20>
 508125c:	00814374 	movhi	r2,1293
 5081260:	108e6604 	addi	r2,r2,14744
 5081264:	11000017 	ldw	r4,0(r2)
 5081268:	e1bffe04 	addi	r6,fp,-8
 508126c:	000b883a 	mov	r5,zero
 5081270:	50930c80 	call	50930c8 <OSSemPend>
 5081274:	e0bffe03 	ldbu	r2,-8(fp)
 5081278:	11003fcc 	andi	r4,r2,255
 508127c:	000b883a 	mov	r5,zero
 5081280:	50802080 	call	5080208 <alt_uCOSIIErrorHandler>
 5081284:	e03ffc05 	stb	zero,-16(fp)
 5081288:	003f8f06 	br	50810c8 <LEDManagementTask+0x20>

0508128c <get_mac_addr>:
 508128c:	defffc04 	addi	sp,sp,-16
 5081290:	dfc00315 	stw	ra,12(sp)
 5081294:	df000215 	stw	fp,8(sp)
 5081298:	df000204 	addi	fp,sp,8
 508129c:	e13ffe15 	stw	r4,-8(fp)
 50812a0:	e17fff15 	stw	r5,-4(fp)
 50812a4:	e13fff17 	ldw	r4,-4(fp)
 50812a8:	508169c0 	call	508169c <get_board_mac_addr>
 50812ac:	e037883a 	mov	sp,fp
 50812b0:	dfc00117 	ldw	ra,4(sp)
 50812b4:	df000017 	ldw	fp,0(sp)
 50812b8:	dec00204 	addi	sp,sp,8
 50812bc:	f800283a 	ret

050812c0 <get_ip_addr>:
 50812c0:	defffb04 	addi	sp,sp,-20
 50812c4:	df000415 	stw	fp,16(sp)
 50812c8:	df000404 	addi	fp,sp,16
 50812cc:	e13ffc15 	stw	r4,-16(fp)
 50812d0:	e17ffd15 	stw	r5,-12(fp)
 50812d4:	e1bffe15 	stw	r6,-8(fp)
 50812d8:	e1ffff15 	stw	r7,-4(fp)
 50812dc:	e0fffd17 	ldw	r3,-12(fp)
 50812e0:	00ba80b4 	movhi	r2,59906
 50812e4:	10aa3004 	addi	r2,r2,-22336
 50812e8:	18800015 	stw	r2,0(r3)
 50812ec:	e0ffff17 	ldw	r3,-4(fp)
 50812f0:	008040b4 	movhi	r2,258
 50812f4:	10aa3004 	addi	r2,r2,-22336
 50812f8:	18800015 	stw	r2,0(r3)
 50812fc:	e0fffe17 	ldw	r3,-8(fp)
 5081300:	00804034 	movhi	r2,256
 5081304:	10bfffc4 	addi	r2,r2,-1
 5081308:	18800015 	stw	r2,0(r3)
 508130c:	e0c00117 	ldw	r3,4(fp)
 5081310:	00800044 	movi	r2,1
 5081314:	18800015 	stw	r2,0(r3)
 5081318:	00800044 	movi	r2,1
 508131c:	e037883a 	mov	sp,fp
 5081320:	df000017 	ldw	fp,0(sp)
 5081324:	dec00104 	addi	sp,sp,4
 5081328:	f800283a 	ret

0508132c <generate_and_store_mac_addr>:
 508132c:	deffea04 	addi	sp,sp,-88
 5081330:	dfc01515 	stw	ra,84(sp)
 5081334:	df001415 	stw	fp,80(sp)
 5081338:	dc001315 	stw	r16,76(sp)
 508133c:	df001304 	addi	fp,sp,76
 5081340:	00bfffc4 	movi	r2,-1
 5081344:	e0bff415 	stw	r2,-48(fp)
 5081348:	e03ff315 	stw	zero,-52(fp)
 508134c:	e03ff115 	stw	zero,-60(fp)
 5081350:	01014374 	movhi	r4,1293
 5081354:	21295704 	addi	r4,r4,-23204
 5081358:	5082ad80 	call	5082ad8 <puts>
 508135c:	01014374 	movhi	r4,1293
 5081360:	21296704 	addi	r4,r4,-23140
 5081364:	5082ad80 	call	5082ad8 <puts>
 5081368:	01014374 	movhi	r4,1293
 508136c:	21297804 	addi	r4,r4,-23072
 5081370:	5082ad80 	call	5082ad8 <puts>
 5081374:	0000bf06 	br	5081674 <generate_and_store_mac_addr+0x348>
 5081378:	01014374 	movhi	r4,1293
 508137c:	21297f04 	addi	r4,r4,-23044
 5081380:	5082ad80 	call	5082ad8 <puts>
 5081384:	01014374 	movhi	r4,1293
 5081388:	21298f04 	addi	r4,r4,-22980
 508138c:	5082ad80 	call	5082ad8 <puts>
 5081390:	01014374 	movhi	r4,1293
 5081394:	21299f04 	addi	r4,r4,-22916
 5081398:	50827b00 	call	50827b0 <printf>
 508139c:	e03ff115 	stw	zero,-60(fp)
 50813a0:	00002806 	br	5081444 <generate_and_store_mac_addr+0x118>
 50813a4:	e43ff117 	ldw	r16,-60(fp)
 50813a8:	00814374 	movhi	r2,1293
 50813ac:	10860504 	addi	r2,r2,6164
 50813b0:	10800017 	ldw	r2,0(r2)
 50813b4:	11000117 	ldw	r4,4(r2)
 50813b8:	50823f00 	call	50823f0 <getc>
 50813bc:	1007883a 	mov	r3,r2
 50813c0:	e0bff504 	addi	r2,fp,-44
 50813c4:	1405883a 	add	r2,r2,r16
 50813c8:	10c00005 	stb	r3,0(r2)
 50813cc:	e0fff117 	ldw	r3,-60(fp)
 50813d0:	e0bff504 	addi	r2,fp,-44
 50813d4:	10c5883a 	add	r2,r2,r3
 50813d8:	10800003 	ldbu	r2,0(r2)
 50813dc:	11003fcc 	andi	r4,r2,255
 50813e0:	2100201c 	xori	r4,r4,128
 50813e4:	213fe004 	addi	r4,r4,-128
 50813e8:	00814374 	movhi	r2,1293
 50813ec:	10860504 	addi	r2,r2,6164
 50813f0:	10800017 	ldw	r2,0(r2)
 50813f4:	11400217 	ldw	r5,8(r2)
 50813f8:	50828280 	call	5082828 <putc>
 50813fc:	e0fff117 	ldw	r3,-60(fp)
 5081400:	e0bff504 	addi	r2,fp,-44
 5081404:	10c5883a 	add	r2,r2,r3
 5081408:	10800003 	ldbu	r2,0(r2)
 508140c:	10803fcc 	andi	r2,r2,255
 5081410:	1080201c 	xori	r2,r2,128
 5081414:	10bfe004 	addi	r2,r2,-128
 5081418:	10800218 	cmpnei	r2,r2,8
 508141c:	1000061e 	bne	r2,zero,5081438 <generate_and_store_mac_addr+0x10c>
 5081420:	e0bff117 	ldw	r2,-60(fp)
 5081424:	1004803a 	cmplt	r2,r2,zero
 5081428:	1000031e 	bne	r2,zero,5081438 <generate_and_store_mac_addr+0x10c>
 508142c:	e0bff117 	ldw	r2,-60(fp)
 5081430:	10bfffc4 	addi	r2,r2,-1
 5081434:	e0bff115 	stw	r2,-60(fp)
 5081438:	e0bff117 	ldw	r2,-60(fp)
 508143c:	10800044 	addi	r2,r2,1
 5081440:	e0bff115 	stw	r2,-60(fp)
 5081444:	e0bff117 	ldw	r2,-60(fp)
 5081448:	10800250 	cmplti	r2,r2,9
 508144c:	103fd51e 	bne	r2,zero,50813a4 <generate_and_store_mac_addr+0x78>
 5081450:	01000284 	movi	r4,10
 5081454:	5082a140 	call	5082a14 <putchar>
 5081458:	e03ff115 	stw	zero,-60(fp)
 508145c:	00002806 	br	5081500 <generate_and_store_mac_addr+0x1d4>
 5081460:	e0fff117 	ldw	r3,-60(fp)
 5081464:	e0bff504 	addi	r2,fp,-44
 5081468:	10c5883a 	add	r2,r2,r3
 508146c:	10800003 	ldbu	r2,0(r2)
 5081470:	10803fcc 	andi	r2,r2,255
 5081474:	1080201c 	xori	r2,r2,128
 5081478:	10bfe004 	addi	r2,r2,-128
 508147c:	1007883a 	mov	r3,r2
 5081480:	00814374 	movhi	r2,1293
 5081484:	10860404 	addi	r2,r2,6160
 5081488:	10800017 	ldw	r2,0(r2)
 508148c:	1885883a 	add	r2,r3,r2
 5081490:	10800003 	ldbu	r2,0(r2)
 5081494:	10803fcc 	andi	r2,r2,255
 5081498:	1080010c 	andi	r2,r2,4
 508149c:	1005003a 	cmpeq	r2,r2,zero
 50814a0:	1000121e 	bne	r2,zero,50814ec <generate_and_store_mac_addr+0x1c0>
 50814a4:	e0bff317 	ldw	r2,-52(fp)
 50814a8:	108002a4 	muli	r2,r2,10
 50814ac:	e0bff315 	stw	r2,-52(fp)
 50814b0:	e0fff117 	ldw	r3,-60(fp)
 50814b4:	e0bff504 	addi	r2,fp,-44
 50814b8:	10c5883a 	add	r2,r2,r3
 50814bc:	10800003 	ldbu	r2,0(r2)
 50814c0:	10c03fcc 	andi	r3,r2,255
 50814c4:	18c0201c 	xori	r3,r3,128
 50814c8:	18ffe004 	addi	r3,r3,-128
 50814cc:	e0bff317 	ldw	r2,-52(fp)
 50814d0:	1885883a 	add	r2,r3,r2
 50814d4:	10bff404 	addi	r2,r2,-48
 50814d8:	e0bff315 	stw	r2,-52(fp)
 50814dc:	e0bff117 	ldw	r2,-60(fp)
 50814e0:	10800044 	addi	r2,r2,1
 50814e4:	e0bff115 	stw	r2,-60(fp)
 50814e8:	00000506 	br	5081500 <generate_and_store_mac_addr+0x1d4>
 50814ec:	e03ff315 	stw	zero,-52(fp)
 50814f0:	01014374 	movhi	r4,1293
 50814f4:	2129ad04 	addi	r4,r4,-22860
 50814f8:	5082ad80 	call	5082ad8 <puts>
 50814fc:	00000306 	br	508150c <generate_and_store_mac_addr+0x1e0>
 5081500:	e0bff117 	ldw	r2,-60(fp)
 5081504:	10800250 	cmplti	r2,r2,9
 5081508:	103fd51e 	bne	r2,zero,5081460 <generate_and_store_mac_addr+0x134>
 508150c:	e0bff317 	ldw	r2,-52(fp)
 5081510:	1005003a 	cmpeq	r2,r2,zero
 5081514:	1000571e 	bne	r2,zero,5081674 <generate_and_store_mac_addr+0x348>
 5081518:	00bfff84 	movi	r2,-2
 508151c:	e0bff745 	stb	r2,-35(fp)
 5081520:	00801684 	movi	r2,90
 5081524:	e0bff785 	stb	r2,-34(fp)
 5081528:	e03ff7c5 	stb	zero,-33(fp)
 508152c:	e03ff805 	stb	zero,-32(fp)
 5081530:	e03ff845 	stb	zero,-31(fp)
 5081534:	008001c4 	movi	r2,7
 5081538:	e0bff885 	stb	r2,-30(fp)
 508153c:	00bffb44 	movi	r2,-19
 5081540:	e0bff8c5 	stb	r2,-29(fp)
 5081544:	00bfffc4 	movi	r2,-1
 5081548:	e0bff905 	stb	r2,-28(fp)
 508154c:	e0bff317 	ldw	r2,-52(fp)
 5081550:	10bfc00c 	andi	r2,r2,65280
 5081554:	1004d23a 	srli	r2,r2,8
 5081558:	e0bff945 	stb	r2,-27(fp)
 508155c:	e0bff317 	ldw	r2,-52(fp)
 5081560:	e0bff985 	stb	r2,-26(fp)
 5081564:	00bfffc4 	movi	r2,-1
 5081568:	e0bff9c5 	stb	r2,-25(fp)
 508156c:	00bfffc4 	movi	r2,-1
 5081570:	e0bffa05 	stb	r2,-24(fp)
 5081574:	00bff004 	movi	r2,-64
 5081578:	e0bffa45 	stb	r2,-23(fp)
 508157c:	00bfea04 	movi	r2,-88
 5081580:	e0bffa85 	stb	r2,-22(fp)
 5081584:	00800044 	movi	r2,1
 5081588:	e0bffac5 	stb	r2,-21(fp)
 508158c:	00bffa84 	movi	r2,-22
 5081590:	e0bffb05 	stb	r2,-20(fp)
 5081594:	00bfffc4 	movi	r2,-1
 5081598:	e0bffb45 	stb	r2,-19(fp)
 508159c:	00bfffc4 	movi	r2,-1
 50815a0:	e0bffb85 	stb	r2,-18(fp)
 50815a4:	00bfffc4 	movi	r2,-1
 50815a8:	e0bffbc5 	stb	r2,-17(fp)
 50815ac:	00bfffc4 	movi	r2,-1
 50815b0:	e0bffc05 	stb	r2,-16(fp)
 50815b4:	00bfffc4 	movi	r2,-1
 50815b8:	e0bffc45 	stb	r2,-15(fp)
 50815bc:	00bfffc4 	movi	r2,-1
 50815c0:	e0bffc85 	stb	r2,-14(fp)
 50815c4:	00bfffc4 	movi	r2,-1
 50815c8:	e0bffcc5 	stb	r2,-13(fp)
 50815cc:	e03ffd05 	stb	zero,-12(fp)
 50815d0:	00bff004 	movi	r2,-64
 50815d4:	e0bffd45 	stb	r2,-11(fp)
 50815d8:	00bfea04 	movi	r2,-88
 50815dc:	e0bffd85 	stb	r2,-10(fp)
 50815e0:	00800044 	movi	r2,1
 50815e4:	e0bffdc5 	stb	r2,-9(fp)
 50815e8:	00800044 	movi	r2,1
 50815ec:	e0bffe05 	stb	r2,-8(fp)
 50815f0:	00bfffc4 	movi	r2,-1
 50815f4:	e0bffe45 	stb	r2,-7(fp)
 50815f8:	00bfffc4 	movi	r2,-1
 50815fc:	e0bffe85 	stb	r2,-6(fp)
 5081600:	00bfffc4 	movi	r2,-1
 5081604:	e0bffec5 	stb	r2,-5(fp)
 5081608:	00bfffc4 	movi	r2,-1
 508160c:	e0bfff05 	stb	r2,-4(fp)
 5081610:	01014374 	movhi	r4,1293
 5081614:	2129bc04 	addi	r4,r4,-22800
 5081618:	508cb4c0 	call	508cb4c <alt_flash_open_dev>
 508161c:	e0bff215 	stw	r2,-56(fp)
 5081620:	e0bff217 	ldw	r2,-56(fp)
 5081624:	1005003a 	cmpeq	r2,r2,zero
 5081628:	1000121e 	bne	r2,zero,5081674 <generate_and_store_mac_addr+0x348>
 508162c:	e0bff217 	ldw	r2,-56(fp)
 5081630:	e0bfed15 	stw	r2,-76(fp)
 5081634:	00a00014 	movui	r2,32768
 5081638:	e0bfee15 	stw	r2,-72(fp)
 508163c:	e0bff744 	addi	r2,fp,-35
 5081640:	e0bfef15 	stw	r2,-68(fp)
 5081644:	00800804 	movi	r2,32
 5081648:	e0bff015 	stw	r2,-64(fp)
 508164c:	e0bfed17 	ldw	r2,-76(fp)
 5081650:	10800517 	ldw	r2,20(r2)
 5081654:	e13fed17 	ldw	r4,-76(fp)
 5081658:	e17fee17 	ldw	r5,-72(fp)
 508165c:	e1bfef17 	ldw	r6,-68(fp)
 5081660:	e1fff017 	ldw	r7,-64(fp)
 5081664:	103ee83a 	callr	r2
 5081668:	e13ff217 	ldw	r4,-56(fp)
 508166c:	508cbc80 	call	508cbc8 <alt_flash_close_dev>
 5081670:	e03ff415 	stw	zero,-48(fp)
 5081674:	e0bff317 	ldw	r2,-52(fp)
 5081678:	1005003a 	cmpeq	r2,r2,zero
 508167c:	103f3e1e 	bne	r2,zero,5081378 <generate_and_store_mac_addr+0x4c>
 5081680:	e0bff417 	ldw	r2,-48(fp)
 5081684:	e037883a 	mov	sp,fp
 5081688:	dfc00217 	ldw	ra,8(sp)
 508168c:	df000117 	ldw	fp,4(sp)
 5081690:	dc000017 	ldw	r16,0(sp)
 5081694:	dec00304 	addi	sp,sp,12
 5081698:	f800283a 	ret

0508169c <get_board_mac_addr>:
 508169c:	defff704 	addi	sp,sp,-36
 50816a0:	dfc00815 	stw	ra,32(sp)
 50816a4:	df000715 	stw	fp,28(sp)
 50816a8:	df000704 	addi	fp,sp,28
 50816ac:	e13fff15 	stw	r4,-4(fp)
 50816b0:	e03ffe15 	stw	zero,-8(fp)
 50816b4:	00808074 	movhi	r2,513
 50816b8:	10a00004 	addi	r2,r2,-32768
 50816bc:	e0bffc15 	stw	r2,-16(fp)
 50816c0:	e0bffc17 	ldw	r2,-16(fp)
 50816c4:	10800037 	ldwio	r2,0(r2)
 50816c8:	e0bffd15 	stw	r2,-12(fp)
 50816cc:	e0bffd17 	ldw	r2,-12(fp)
 50816d0:	1096bfa0 	cmpeqi	r2,r2,23294
 50816d4:	1000021e 	bne	r2,zero,50816e0 <get_board_mac_addr+0x44>
 50816d8:	508132c0 	call	508132c <generate_and_store_mac_addr>
 50816dc:	e0bffe15 	stw	r2,-8(fp)
 50816e0:	e0bffe17 	ldw	r2,-8(fp)
 50816e4:	1004c03a 	cmpne	r2,r2,zero
 50816e8:	1000411e 	bne	r2,zero,50817f0 <get_board_mac_addr+0x154>
 50816ec:	e0bffc17 	ldw	r2,-16(fp)
 50816f0:	10800104 	addi	r2,r2,4
 50816f4:	10800023 	ldbuio	r2,0(r2)
 50816f8:	1007883a 	mov	r3,r2
 50816fc:	e0bfff17 	ldw	r2,-4(fp)
 5081700:	10c00005 	stb	r3,0(r2)
 5081704:	e0bfff17 	ldw	r2,-4(fp)
 5081708:	10c00044 	addi	r3,r2,1
 508170c:	e0bffc17 	ldw	r2,-16(fp)
 5081710:	10800144 	addi	r2,r2,5
 5081714:	10800023 	ldbuio	r2,0(r2)
 5081718:	18800005 	stb	r2,0(r3)
 508171c:	e0bfff17 	ldw	r2,-4(fp)
 5081720:	10c00084 	addi	r3,r2,2
 5081724:	e0bffc17 	ldw	r2,-16(fp)
 5081728:	10800184 	addi	r2,r2,6
 508172c:	10800023 	ldbuio	r2,0(r2)
 5081730:	18800005 	stb	r2,0(r3)
 5081734:	e0bfff17 	ldw	r2,-4(fp)
 5081738:	10c000c4 	addi	r3,r2,3
 508173c:	e0bffc17 	ldw	r2,-16(fp)
 5081740:	108001c4 	addi	r2,r2,7
 5081744:	10800023 	ldbuio	r2,0(r2)
 5081748:	18800005 	stb	r2,0(r3)
 508174c:	e0bfff17 	ldw	r2,-4(fp)
 5081750:	10c00104 	addi	r3,r2,4
 5081754:	e0bffc17 	ldw	r2,-16(fp)
 5081758:	10800204 	addi	r2,r2,8
 508175c:	10800023 	ldbuio	r2,0(r2)
 5081760:	18800005 	stb	r2,0(r3)
 5081764:	e0bfff17 	ldw	r2,-4(fp)
 5081768:	10c00144 	addi	r3,r2,5
 508176c:	e0bffc17 	ldw	r2,-16(fp)
 5081770:	10800244 	addi	r2,r2,9
 5081774:	10800023 	ldbuio	r2,0(r2)
 5081778:	18800005 	stb	r2,0(r3)
 508177c:	e0bfff17 	ldw	r2,-4(fp)
 5081780:	10800003 	ldbu	r2,0(r2)
 5081784:	11403fcc 	andi	r5,r2,255
 5081788:	e0bfff17 	ldw	r2,-4(fp)
 508178c:	10800044 	addi	r2,r2,1
 5081790:	10800003 	ldbu	r2,0(r2)
 5081794:	11803fcc 	andi	r6,r2,255
 5081798:	e0bfff17 	ldw	r2,-4(fp)
 508179c:	10800084 	addi	r2,r2,2
 50817a0:	10800003 	ldbu	r2,0(r2)
 50817a4:	11c03fcc 	andi	r7,r2,255
 50817a8:	e0bfff17 	ldw	r2,-4(fp)
 50817ac:	108000c4 	addi	r2,r2,3
 50817b0:	10800003 	ldbu	r2,0(r2)
 50817b4:	10c03fcc 	andi	r3,r2,255
 50817b8:	e0bfff17 	ldw	r2,-4(fp)
 50817bc:	10800104 	addi	r2,r2,4
 50817c0:	10800003 	ldbu	r2,0(r2)
 50817c4:	11003fcc 	andi	r4,r2,255
 50817c8:	e0bfff17 	ldw	r2,-4(fp)
 50817cc:	10800144 	addi	r2,r2,5
 50817d0:	10800003 	ldbu	r2,0(r2)
 50817d4:	10803fcc 	andi	r2,r2,255
 50817d8:	d8c00015 	stw	r3,0(sp)
 50817dc:	d9000115 	stw	r4,4(sp)
 50817e0:	d8800215 	stw	r2,8(sp)
 50817e4:	01014374 	movhi	r4,1293
 50817e8:	2129c004 	addi	r4,r4,-22784
 50817ec:	50827b00 	call	50827b0 <printf>
 50817f0:	e0bffe17 	ldw	r2,-8(fp)
 50817f4:	e037883a 	mov	sp,fp
 50817f8:	dfc00117 	ldw	ra,4(sp)
 50817fc:	df000017 	ldw	fp,0(sp)
 5081800:	dec00204 	addi	sp,sp,8
 5081804:	f800283a 	ret

05081808 <FindLastFlashSectorOffset>:
 5081808:	defff304 	addi	sp,sp,-52
 508180c:	dfc00c15 	stw	ra,48(sp)
 5081810:	df000b15 	stw	fp,44(sp)
 5081814:	df000b04 	addi	fp,sp,44
 5081818:	e13fff15 	stw	r4,-4(fp)
 508181c:	e03ff815 	stw	zero,-32(fp)
 5081820:	01014374 	movhi	r4,1293
 5081824:	2129bc04 	addi	r4,r4,-22800
 5081828:	508cb4c0 	call	508cb4c <alt_flash_open_dev>
 508182c:	e0bffc15 	stw	r2,-16(fp)
 5081830:	e0bffc17 	ldw	r2,-16(fp)
 5081834:	1004c03a 	cmpne	r2,r2,zero
 5081838:	1000021e 	bne	r2,zero,5081844 <FindLastFlashSectorOffset+0x3c>
 508183c:	00bfffc4 	movi	r2,-1
 5081840:	e0bff815 	stw	r2,-32(fp)
 5081844:	e0bff817 	ldw	r2,-32(fp)
 5081848:	1004c03a 	cmpne	r2,r2,zero
 508184c:	10000d1e 	bne	r2,zero,5081884 <FindLastFlashSectorOffset+0x7c>
 5081850:	e0bffc17 	ldw	r2,-16(fp)
 5081854:	e0bff515 	stw	r2,-44(fp)
 5081858:	e0bffd04 	addi	r2,fp,-12
 508185c:	e0bff615 	stw	r2,-40(fp)
 5081860:	e0bffe04 	addi	r2,fp,-8
 5081864:	e0bff715 	stw	r2,-36(fp)
 5081868:	e0bff517 	ldw	r2,-44(fp)
 508186c:	10800717 	ldw	r2,28(r2)
 5081870:	e13ff517 	ldw	r4,-44(fp)
 5081874:	e17ff617 	ldw	r5,-40(fp)
 5081878:	e1bff717 	ldw	r6,-36(fp)
 508187c:	103ee83a 	callr	r2
 5081880:	e0bff815 	stw	r2,-32(fp)
 5081884:	e0bff817 	ldw	r2,-32(fp)
 5081888:	1004c03a 	cmpne	r2,r2,zero
 508188c:	1000231e 	bne	r2,zero,508191c <FindLastFlashSectorOffset+0x114>
 5081890:	e0bffd17 	ldw	r2,-12(fp)
 5081894:	e0bffb15 	stw	r2,-20(fp)
 5081898:	00800044 	movi	r2,1
 508189c:	e0bff915 	stw	r2,-28(fp)
 50818a0:	00001206 	br	50818ec <FindLastFlashSectorOffset+0xe4>
 50818a4:	e0bff917 	ldw	r2,-28(fp)
 50818a8:	1004913a 	slli	r2,r2,4
 50818ac:	1007883a 	mov	r3,r2
 50818b0:	e0bffd17 	ldw	r2,-12(fp)
 50818b4:	1885883a 	add	r2,r3,r2
 50818b8:	10c00017 	ldw	r3,0(r2)
 50818bc:	e0bffb17 	ldw	r2,-20(fp)
 50818c0:	10800017 	ldw	r2,0(r2)
 50818c4:	10c0060e 	bge	r2,r3,50818e0 <FindLastFlashSectorOffset+0xd8>
 50818c8:	e0bff917 	ldw	r2,-28(fp)
 50818cc:	1004913a 	slli	r2,r2,4
 50818d0:	1007883a 	mov	r3,r2
 50818d4:	e0bffd17 	ldw	r2,-12(fp)
 50818d8:	1885883a 	add	r2,r3,r2
 50818dc:	e0bffb15 	stw	r2,-20(fp)
 50818e0:	e0bff917 	ldw	r2,-28(fp)
 50818e4:	10800044 	addi	r2,r2,1
 50818e8:	e0bff915 	stw	r2,-28(fp)
 50818ec:	e0fffe17 	ldw	r3,-8(fp)
 50818f0:	e0bff917 	ldw	r2,-28(fp)
 50818f4:	10ffeb16 	blt	r2,r3,50818a4 <FindLastFlashSectorOffset+0x9c>
 50818f8:	e0bffb17 	ldw	r2,-20(fp)
 50818fc:	10c00017 	ldw	r3,0(r2)
 5081900:	e0bffb17 	ldw	r2,-20(fp)
 5081904:	10800117 	ldw	r2,4(r2)
 5081908:	1887883a 	add	r3,r3,r2
 508190c:	e0bffb17 	ldw	r2,-20(fp)
 5081910:	10800317 	ldw	r2,12(r2)
 5081914:	1885c83a 	sub	r2,r3,r2
 5081918:	e0bffa15 	stw	r2,-24(fp)
 508191c:	e0bff817 	ldw	r2,-32(fp)
 5081920:	1004c03a 	cmpne	r2,r2,zero
 5081924:	1000031e 	bne	r2,zero,5081934 <FindLastFlashSectorOffset+0x12c>
 5081928:	e0fffa17 	ldw	r3,-24(fp)
 508192c:	e0bfff17 	ldw	r2,-4(fp)
 5081930:	10c00015 	stw	r3,0(r2)
 5081934:	e0bff817 	ldw	r2,-32(fp)
 5081938:	e037883a 	mov	sp,fp
 508193c:	dfc00117 	ldw	ra,4(sp)
 5081940:	df000017 	ldw	fp,0(sp)
 5081944:	dec00204 	addi	sp,sp,8
 5081948:	f800283a 	ret

0508194c <SSSCreateOSDataStructs>:
 508194c:	defffd04 	addi	sp,sp,-12
 5081950:	dfc00215 	stw	ra,8(sp)
 5081954:	df000115 	stw	fp,4(sp)
 5081958:	df000104 	addi	fp,sp,4
 508195c:	010143b4 	movhi	r4,1294
 5081960:	21208b04 	addi	r4,r4,-32212
 5081964:	01400784 	movi	r5,30
 5081968:	5091a740 	call	5091a74 <OSQCreate>
 508196c:	d0a86115 	stw	r2,-24188(gp)
 5081970:	d0a86117 	ldw	r2,-24188(gp)
 5081974:	1004c03a 	cmpne	r2,r2,zero
 5081978:	1000041e 	bne	r2,zero,508198c <SSSCreateOSDataStructs+0x40>
 508197c:	01003fc4 	movi	r4,255
 5081980:	01414374 	movhi	r5,1293
 5081984:	2969cf04 	addi	r5,r5,-22724
 5081988:	50802080 	call	5080208 <alt_uCOSIIErrorHandler>
 508198c:	01000044 	movi	r4,1
 5081990:	5092d140 	call	5092d14 <OSSemCreate>
 5081994:	d0a86215 	stw	r2,-24184(gp)
 5081998:	d0a86217 	ldw	r2,-24184(gp)
 508199c:	1004c03a 	cmpne	r2,r2,zero
 50819a0:	1000041e 	bne	r2,zero,50819b4 <SSSCreateOSDataStructs+0x68>
 50819a4:	01003fc4 	movi	r4,255
 50819a8:	01414374 	movhi	r5,1293
 50819ac:	2969d804 	addi	r5,r5,-22688
 50819b0:	50802080 	call	5080208 <alt_uCOSIIErrorHandler>
 50819b4:	0009883a 	mov	r4,zero
 50819b8:	e17fff04 	addi	r5,fp,-4
 50819bc:	508fb100 	call	508fb10 <OSFlagCreate>
 50819c0:	d0a86315 	stw	r2,-24180(gp)
 50819c4:	d0a86317 	ldw	r2,-24180(gp)
 50819c8:	1004c03a 	cmpne	r2,r2,zero
 50819cc:	1000041e 	bne	r2,zero,50819e0 <SSSCreateOSDataStructs+0x94>
 50819d0:	e0bfff03 	ldbu	r2,-4(fp)
 50819d4:	11003fcc 	andi	r4,r2,255
 50819d8:	000b883a 	mov	r5,zero
 50819dc:	50802080 	call	5080208 <alt_uCOSIIErrorHandler>
 50819e0:	e037883a 	mov	sp,fp
 50819e4:	dfc00117 	ldw	ra,4(sp)
 50819e8:	df000017 	ldw	fp,0(sp)
 50819ec:	dec00204 	addi	sp,sp,8
 50819f0:	f800283a 	ret

050819f4 <SSSCreateTasks>:
 50819f4:	defff804 	addi	sp,sp,-32
 50819f8:	dfc00715 	stw	ra,28(sp)
 50819fc:	df000615 	stw	fp,24(sp)
 5081a00:	df000604 	addi	fp,sp,24
 5081a04:	018143b4 	movhi	r6,1294
 5081a08:	31a08a04 	addi	r6,r6,-32216
 5081a0c:	00800484 	movi	r2,18
 5081a10:	d8800015 	stw	r2,0(sp)
 5081a14:	00814374 	movhi	r2,1293
 5081a18:	10988b04 	addi	r2,r2,25132
 5081a1c:	d8800115 	stw	r2,4(sp)
 5081a20:	00820004 	movi	r2,2048
 5081a24:	d8800215 	stw	r2,8(sp)
 5081a28:	d8000315 	stw	zero,12(sp)
 5081a2c:	d8000415 	stw	zero,16(sp)
 5081a30:	01014234 	movhi	r4,1288
 5081a34:	21040304 	addi	r4,r4,4108
 5081a38:	000b883a 	mov	r5,zero
 5081a3c:	01c00484 	movi	r7,18
 5081a40:	5093f640 	call	5093f64 <OSTaskCreateExt>
 5081a44:	e0bfff05 	stb	r2,-4(fp)
 5081a48:	e13fff03 	ldbu	r4,-4(fp)
 5081a4c:	000b883a 	mov	r5,zero
 5081a50:	50802080 	call	5080208 <alt_uCOSIIErrorHandler>
 5081a54:	018143b4 	movhi	r6,1294
 5081a58:	31a8a804 	addi	r6,r6,-23904
 5081a5c:	008001c4 	movi	r2,7
 5081a60:	d8800015 	stw	r2,0(sp)
 5081a64:	008143b4 	movhi	r2,1294
 5081a68:	10a0a904 	addi	r2,r2,-32092
 5081a6c:	d8800115 	stw	r2,4(sp)
 5081a70:	00820004 	movi	r2,2048
 5081a74:	d8800215 	stw	r2,8(sp)
 5081a78:	d8000315 	stw	zero,12(sp)
 5081a7c:	d8000415 	stw	zero,16(sp)
 5081a80:	01014234 	movhi	r4,1288
 5081a84:	21042a04 	addi	r4,r4,4264
 5081a88:	000b883a 	mov	r5,zero
 5081a8c:	01c001c4 	movi	r7,7
 5081a90:	5093f640 	call	5093f64 <OSTaskCreateExt>
 5081a94:	e0bfff05 	stb	r2,-4(fp)
 5081a98:	e13fff03 	ldbu	r4,-4(fp)
 5081a9c:	000b883a 	mov	r5,zero
 5081aa0:	50802080 	call	5080208 <alt_uCOSIIErrorHandler>
 5081aa4:	e037883a 	mov	sp,fp
 5081aa8:	dfc00117 	ldw	ra,4(sp)
 5081aac:	df000017 	ldw	fp,0(sp)
 5081ab0:	dec00204 	addi	sp,sp,8
 5081ab4:	f800283a 	ret

05081ab8 <sss_reset_connection>:
 5081ab8:	defffd04 	addi	sp,sp,-12
 5081abc:	dfc00215 	stw	ra,8(sp)
 5081ac0:	df000115 	stw	fp,4(sp)
 5081ac4:	df000104 	addi	fp,sp,4
 5081ac8:	e13fff15 	stw	r4,-4(fp)
 5081acc:	e0bfff17 	ldw	r2,-4(fp)
 5081ad0:	1009883a 	mov	r4,r2
 5081ad4:	01817c04 	movi	r6,1520
 5081ad8:	000b883a 	mov	r5,zero
 5081adc:	50826980 	call	5082698 <memset>
 5081ae0:	e0ffff17 	ldw	r3,-4(fp)
 5081ae4:	00bfffc4 	movi	r2,-1
 5081ae8:	18800115 	stw	r2,4(r3)
 5081aec:	e0bfff17 	ldw	r2,-4(fp)
 5081af0:	10000015 	stw	zero,0(r2)
 5081af4:	e0bfff17 	ldw	r2,-4(fp)
 5081af8:	10c00304 	addi	r3,r2,12
 5081afc:	e0bfff17 	ldw	r2,-4(fp)
 5081b00:	10c17b15 	stw	r3,1516(r2)
 5081b04:	e0bfff17 	ldw	r2,-4(fp)
 5081b08:	10c00304 	addi	r3,r2,12
 5081b0c:	e0bfff17 	ldw	r2,-4(fp)
 5081b10:	10c17a15 	stw	r3,1512(r2)
 5081b14:	e037883a 	mov	sp,fp
 5081b18:	dfc00117 	ldw	ra,4(sp)
 5081b1c:	df000017 	ldw	fp,0(sp)
 5081b20:	dec00204 	addi	sp,sp,8
 5081b24:	f800283a 	ret

05081b28 <sss_send_menu>:
 5081b28:	defe8504 	addi	sp,sp,-1516
 5081b2c:	dfc17a15 	stw	ra,1512(sp)
 5081b30:	df017915 	stw	fp,1508(sp)
 5081b34:	df017904 	addi	fp,sp,1508
 5081b38:	e13fff15 	stw	r4,-4(fp)
 5081b3c:	e0be8804 	addi	r2,fp,-1504
 5081b40:	e0be8715 	stw	r2,-1508(fp)
 5081b44:	e0be8717 	ldw	r2,-1508(fp)
 5081b48:	00c14374 	movhi	r3,1293
 5081b4c:	18e9e204 	addi	r3,r3,-22648
 5081b50:	1009883a 	mov	r4,r2
 5081b54:	180b883a 	mov	r5,r3
 5081b58:	01800904 	movi	r6,36
 5081b5c:	50825180 	call	5082518 <memcpy>
 5081b60:	e0be8717 	ldw	r2,-1508(fp)
 5081b64:	108008c4 	addi	r2,r2,35
 5081b68:	e0be8715 	stw	r2,-1508(fp)
 5081b6c:	e0be8717 	ldw	r2,-1508(fp)
 5081b70:	00c14374 	movhi	r3,1293
 5081b74:	18e9eb04 	addi	r3,r3,-22612
 5081b78:	1009883a 	mov	r4,r2
 5081b7c:	180b883a 	mov	r5,r3
 5081b80:	01800904 	movi	r6,36
 5081b84:	50825180 	call	5082518 <memcpy>
 5081b88:	e0be8717 	ldw	r2,-1508(fp)
 5081b8c:	108008c4 	addi	r2,r2,35
 5081b90:	e0be8715 	stw	r2,-1508(fp)
 5081b94:	e0be8717 	ldw	r2,-1508(fp)
 5081b98:	00c14374 	movhi	r3,1293
 5081b9c:	18e9e204 	addi	r3,r3,-22648
 5081ba0:	1009883a 	mov	r4,r2
 5081ba4:	180b883a 	mov	r5,r3
 5081ba8:	01800904 	movi	r6,36
 5081bac:	50825180 	call	5082518 <memcpy>
 5081bb0:	e0be8717 	ldw	r2,-1508(fp)
 5081bb4:	108008c4 	addi	r2,r2,35
 5081bb8:	e0be8715 	stw	r2,-1508(fp)
 5081bbc:	e0be8717 	ldw	r2,-1508(fp)
 5081bc0:	00c14374 	movhi	r3,1293
 5081bc4:	18e9f404 	addi	r3,r3,-22576
 5081bc8:	1009883a 	mov	r4,r2
 5081bcc:	180b883a 	mov	r5,r3
 5081bd0:	01800844 	movi	r6,33
 5081bd4:	50825180 	call	5082518 <memcpy>
 5081bd8:	e0be8717 	ldw	r2,-1508(fp)
 5081bdc:	10800804 	addi	r2,r2,32
 5081be0:	e0be8715 	stw	r2,-1508(fp)
 5081be4:	e0be8717 	ldw	r2,-1508(fp)
 5081be8:	00c14374 	movhi	r3,1293
 5081bec:	18e9fd04 	addi	r3,r3,-22540
 5081bf0:	1009883a 	mov	r4,r2
 5081bf4:	180b883a 	mov	r5,r3
 5081bf8:	01800784 	movi	r6,30
 5081bfc:	50825180 	call	5082518 <memcpy>
 5081c00:	e0be8717 	ldw	r2,-1508(fp)
 5081c04:	10800744 	addi	r2,r2,29
 5081c08:	e0be8715 	stw	r2,-1508(fp)
 5081c0c:	e0be8717 	ldw	r2,-1508(fp)
 5081c10:	00c14374 	movhi	r3,1293
 5081c14:	18ea0504 	addi	r3,r3,-22508
 5081c18:	1009883a 	mov	r4,r2
 5081c1c:	180b883a 	mov	r5,r3
 5081c20:	018005c4 	movi	r6,23
 5081c24:	50825180 	call	5082518 <memcpy>
 5081c28:	e0be8717 	ldw	r2,-1508(fp)
 5081c2c:	10800584 	addi	r2,r2,22
 5081c30:	e0be8715 	stw	r2,-1508(fp)
 5081c34:	e0be8717 	ldw	r2,-1508(fp)
 5081c38:	00c14374 	movhi	r3,1293
 5081c3c:	18e9e204 	addi	r3,r3,-22648
 5081c40:	1009883a 	mov	r4,r2
 5081c44:	180b883a 	mov	r5,r3
 5081c48:	01800904 	movi	r6,36
 5081c4c:	50825180 	call	5082518 <memcpy>
 5081c50:	e0be8717 	ldw	r2,-1508(fp)
 5081c54:	108008c4 	addi	r2,r2,35
 5081c58:	e0be8715 	stw	r2,-1508(fp)
 5081c5c:	e0be8717 	ldw	r2,-1508(fp)
 5081c60:	00c14374 	movhi	r3,1293
 5081c64:	18ea0b04 	addi	r3,r3,-22484
 5081c68:	1009883a 	mov	r4,r2
 5081c6c:	180b883a 	mov	r5,r3
 5081c70:	01800904 	movi	r6,36
 5081c74:	50825180 	call	5082518 <memcpy>
 5081c78:	e0be8717 	ldw	r2,-1508(fp)
 5081c7c:	108008c4 	addi	r2,r2,35
 5081c80:	e0be8715 	stw	r2,-1508(fp)
 5081c84:	e0bfff17 	ldw	r2,-4(fp)
 5081c88:	11000117 	ldw	r4,4(r2)
 5081c8c:	e17e8804 	addi	r5,fp,-1504
 5081c90:	e0fe8717 	ldw	r3,-1508(fp)
 5081c94:	e0be8804 	addi	r2,fp,-1504
 5081c98:	188dc83a 	sub	r6,r3,r2
 5081c9c:	000f883a 	mov	r7,zero
 5081ca0:	50a73000 	call	50a7300 <t_send>
 5081ca4:	e037883a 	mov	sp,fp
 5081ca8:	dfc00117 	ldw	ra,4(sp)
 5081cac:	df000017 	ldw	fp,0(sp)
 5081cb0:	dec00204 	addi	sp,sp,8
 5081cb4:	f800283a 	ret

05081cb8 <sss_handle_accept>:
 5081cb8:	defff604 	addi	sp,sp,-40
 5081cbc:	dfc00915 	stw	ra,36(sp)
 5081cc0:	df000815 	stw	fp,32(sp)
 5081cc4:	df000804 	addi	fp,sp,32
 5081cc8:	e13ffe15 	stw	r4,-8(fp)
 5081ccc:	e17fff15 	stw	r5,-4(fp)
 5081cd0:	00800404 	movi	r2,16
 5081cd4:	e0bff915 	stw	r2,-28(fp)
 5081cd8:	e0bfff17 	ldw	r2,-4(fp)
 5081cdc:	10800117 	ldw	r2,4(r2)
 5081ce0:	10bfffd8 	cmpnei	r2,r2,-1
 5081ce4:	1000191e 	bne	r2,zero,5081d4c <sss_handle_accept+0x94>
 5081ce8:	e17ffa04 	addi	r5,fp,-24
 5081cec:	e1bff904 	addi	r6,fp,-28
 5081cf0:	e13ffe17 	ldw	r4,-8(fp)
 5081cf4:	509d1b00 	call	509d1b0 <bsd_accept>
 5081cf8:	e0bff815 	stw	r2,-32(fp)
 5081cfc:	e0bff817 	ldw	r2,-32(fp)
 5081d00:	1004403a 	cmpge	r2,r2,zero
 5081d04:	1000051e 	bne	r2,zero,5081d1c <sss_handle_accept+0x64>
 5081d08:	01003fc4 	movi	r4,255
 5081d0c:	01414374 	movhi	r5,1293
 5081d10:	296a1404 	addi	r5,r5,-22448
 5081d14:	508082c0 	call	508082c <alt_NetworkErrorHandler>
 5081d18:	00001206 	br	5081d64 <sss_handle_accept+0xac>
 5081d1c:	e0bfff17 	ldw	r2,-4(fp)
 5081d20:	e0fff817 	ldw	r3,-32(fp)
 5081d24:	10c00115 	stw	r3,4(r2)
 5081d28:	e13fff17 	ldw	r4,-4(fp)
 5081d2c:	5081b280 	call	5081b28 <sss_send_menu>
 5081d30:	e13ffb17 	ldw	r4,-20(fp)
 5081d34:	509d91c0 	call	509d91c <bsd_inet_ntoa>
 5081d38:	100b883a 	mov	r5,r2
 5081d3c:	01014374 	movhi	r4,1293
 5081d40:	212a1d04 	addi	r4,r4,-22412
 5081d44:	50827b00 	call	50827b0 <printf>
 5081d48:	00000606 	br	5081d64 <sss_handle_accept+0xac>
 5081d4c:	e13ffb17 	ldw	r4,-20(fp)
 5081d50:	509d91c0 	call	509d91c <bsd_inet_ntoa>
 5081d54:	100b883a 	mov	r5,r2
 5081d58:	01014374 	movhi	r4,1293
 5081d5c:	212a2c04 	addi	r4,r4,-22352
 5081d60:	50827b00 	call	50827b0 <printf>
 5081d64:	e037883a 	mov	sp,fp
 5081d68:	dfc00117 	ldw	ra,4(sp)
 5081d6c:	df000017 	ldw	fp,0(sp)
 5081d70:	dec00204 	addi	sp,sp,8
 5081d74:	f800283a 	ret

05081d78 <sss_exec_command>:
 5081d78:	defe8104 	addi	sp,sp,-1532
 5081d7c:	dfc17e15 	stw	ra,1528(sp)
 5081d80:	df017d15 	stw	fp,1524(sp)
 5081d84:	df017d04 	addi	fp,sp,1524
 5081d88:	e13ffe15 	stw	r4,-8(fp)
 5081d8c:	e0bffe17 	ldw	r2,-8(fp)
 5081d90:	10817b17 	ldw	r2,1516(r2)
 5081d94:	1007883a 	mov	r3,r2
 5081d98:	e0bffe17 	ldw	r2,-8(fp)
 5081d9c:	10817a17 	ldw	r2,1512(r2)
 5081da0:	1885c83a 	sub	r2,r3,r2
 5081da4:	e0be8615 	stw	r2,-1512(fp)
 5081da8:	e0be8704 	addi	r2,fp,-1508
 5081dac:	e0be8515 	stw	r2,-1516(fp)
 5081db0:	00800c04 	movi	r2,48
 5081db4:	d0a86015 	stw	r2,-24192(gp)
 5081db8:	00004506 	br	5081ed0 <sss_exec_command+0x158>
 5081dbc:	e0bffe17 	ldw	r2,-8(fp)
 5081dc0:	10c17a17 	ldw	r3,1512(r2)
 5081dc4:	18800003 	ldbu	r2,0(r3)
 5081dc8:	10803fcc 	andi	r2,r2,255
 5081dcc:	e0be8315 	stw	r2,-1524(fp)
 5081dd0:	18c00044 	addi	r3,r3,1
 5081dd4:	e0bffe17 	ldw	r2,-8(fp)
 5081dd8:	10c17a15 	stw	r3,1512(r2)
 5081ddc:	00814374 	movhi	r2,1293
 5081de0:	10860404 	addi	r2,r2,6160
 5081de4:	10c00017 	ldw	r3,0(r2)
 5081de8:	e0be8317 	ldw	r2,-1524(fp)
 5081dec:	1885883a 	add	r2,r3,r2
 5081df0:	10800003 	ldbu	r2,0(r2)
 5081df4:	10803fcc 	andi	r2,r2,255
 5081df8:	1080008c 	andi	r2,r2,2
 5081dfc:	1005003a 	cmpeq	r2,r2,zero
 5081e00:	1000041e 	bne	r2,zero,5081e14 <sss_exec_command+0x9c>
 5081e04:	e0be8317 	ldw	r2,-1524(fp)
 5081e08:	10bff804 	addi	r2,r2,-32
 5081e0c:	e0bfff15 	stw	r2,-4(fp)
 5081e10:	00000206 	br	5081e1c <sss_exec_command+0xa4>
 5081e14:	e0be8317 	ldw	r2,-1524(fp)
 5081e18:	e0bfff15 	stw	r2,-4(fp)
 5081e1c:	e0bfff17 	ldw	r2,-4(fp)
 5081e20:	d0a86015 	stw	r2,-24192(gp)
 5081e24:	d0a86017 	ldw	r2,-24192(gp)
 5081e28:	10800830 	cmpltui	r2,r2,32
 5081e2c:	1000281e 	bne	r2,zero,5081ed0 <sss_exec_command+0x158>
 5081e30:	d0a86017 	ldw	r2,-24192(gp)
 5081e34:	10801fe8 	cmpgeui	r2,r2,127
 5081e38:	1000251e 	bne	r2,zero,5081ed0 <sss_exec_command+0x158>
 5081e3c:	e13e8517 	ldw	r4,-1516(fp)
 5081e40:	d0a86017 	ldw	r2,-24192(gp)
 5081e44:	11803fcc 	andi	r6,r2,255
 5081e48:	3180201c 	xori	r6,r6,128
 5081e4c:	31bfe004 	addi	r6,r6,-128
 5081e50:	01414374 	movhi	r5,1293
 5081e54:	296a3b04 	addi	r5,r5,-22292
 5081e58:	5082b4c0 	call	5082b4c <sprintf>
 5081e5c:	1007883a 	mov	r3,r2
 5081e60:	e0be8517 	ldw	r2,-1516(fp)
 5081e64:	10c5883a 	add	r2,r2,r3
 5081e68:	e0be8515 	stw	r2,-1516(fp)
 5081e6c:	d0a86017 	ldw	r2,-24192(gp)
 5081e70:	10801458 	cmpnei	r2,r2,81
 5081e74:	10000e1e 	bne	r2,zero,5081eb0 <sss_exec_command+0x138>
 5081e78:	e0be8517 	ldw	r2,-1516(fp)
 5081e7c:	00c14374 	movhi	r3,1293
 5081e80:	18ea4504 	addi	r3,r3,-22252
 5081e84:	1009883a 	mov	r4,r2
 5081e88:	180b883a 	mov	r5,r3
 5081e8c:	018006c4 	movi	r6,27
 5081e90:	50825180 	call	5082518 <memcpy>
 5081e94:	e0be8517 	ldw	r2,-1516(fp)
 5081e98:	10800684 	addi	r2,r2,26
 5081e9c:	e0be8515 	stw	r2,-1516(fp)
 5081ea0:	e0fffe17 	ldw	r3,-8(fp)
 5081ea4:	00800044 	movi	r2,1
 5081ea8:	18800215 	stw	r2,8(r3)
 5081eac:	00000806 	br	5081ed0 <sss_exec_command+0x158>
 5081eb0:	d1286117 	ldw	r4,-24188(gp)
 5081eb4:	d0a86017 	ldw	r2,-24192(gp)
 5081eb8:	100b883a 	mov	r5,r2
 5081ebc:	50924ec0 	call	50924ec <OSQPost>
 5081ec0:	e0be8405 	stb	r2,-1520(fp)
 5081ec4:	e13e8403 	ldbu	r4,-1520(fp)
 5081ec8:	000b883a 	mov	r5,zero
 5081ecc:	5080ac40 	call	5080ac4 <alt_SSSErrorHandler>
 5081ed0:	e0be8617 	ldw	r2,-1512(fp)
 5081ed4:	10bfffc4 	addi	r2,r2,-1
 5081ed8:	e0be8615 	stw	r2,-1512(fp)
 5081edc:	e0be8617 	ldw	r2,-1512(fp)
 5081ee0:	10bfffd8 	cmpnei	r2,r2,-1
 5081ee4:	103fb51e 	bne	r2,zero,5081dbc <sss_exec_command+0x44>
 5081ee8:	e0bffe17 	ldw	r2,-8(fp)
 5081eec:	11000117 	ldw	r4,4(r2)
 5081ef0:	e17e8704 	addi	r5,fp,-1508
 5081ef4:	e0fe8517 	ldw	r3,-1516(fp)
 5081ef8:	e0be8704 	addi	r2,fp,-1508
 5081efc:	188dc83a 	sub	r6,r3,r2
 5081f00:	000f883a 	mov	r7,zero
 5081f04:	50a73000 	call	50a7300 <t_send>
 5081f08:	e037883a 	mov	sp,fp
 5081f0c:	dfc00117 	ldw	ra,4(sp)
 5081f10:	df000017 	ldw	fp,0(sp)
 5081f14:	dec00204 	addi	sp,sp,8
 5081f18:	f800283a 	ret

05081f1c <sss_handle_receive>:
 5081f1c:	defff904 	addi	sp,sp,-28
 5081f20:	dfc00615 	stw	ra,24(sp)
 5081f24:	df000515 	stw	fp,20(sp)
 5081f28:	df000504 	addi	fp,sp,20
 5081f2c:	e13ffe15 	stw	r4,-8(fp)
 5081f30:	e03ffd15 	stw	zero,-12(fp)
 5081f34:	e03ffc15 	stw	zero,-16(fp)
 5081f38:	e0bffe17 	ldw	r2,-8(fp)
 5081f3c:	10c00304 	addi	r3,r2,12
 5081f40:	e0bffe17 	ldw	r2,-8(fp)
 5081f44:	10c17a15 	stw	r3,1512(r2)
 5081f48:	e0bffe17 	ldw	r2,-8(fp)
 5081f4c:	10c00304 	addi	r3,r2,12
 5081f50:	e0bffe17 	ldw	r2,-8(fp)
 5081f54:	10c17b15 	stw	r3,1516(r2)
 5081f58:	01014374 	movhi	r4,1293
 5081f5c:	212a4c04 	addi	r4,r4,-22224
 5081f60:	5082ad80 	call	5082ad8 <puts>
 5081f64:	00005706 	br	50820c4 <sss_handle_receive+0x1a8>
 5081f68:	e0bffe17 	ldw	r2,-8(fp)
 5081f6c:	10800304 	addi	r2,r2,12
 5081f70:	1009883a 	mov	r4,r2
 5081f74:	01400284 	movi	r5,10
 5081f78:	5082c200 	call	5082c20 <strchr>
 5081f7c:	e0bffb15 	stw	r2,-20(fp)
 5081f80:	e0bffb17 	ldw	r2,-20(fp)
 5081f84:	1005003a 	cmpeq	r2,r2,zero
 5081f88:	1000031e 	bne	r2,zero,5081f98 <sss_handle_receive+0x7c>
 5081f8c:	e13ffe17 	ldw	r4,-8(fp)
 5081f90:	5081d780 	call	5081d78 <sss_exec_command>
 5081f94:	00001c06 	br	5082008 <sss_handle_receive+0xec>
 5081f98:	e0bffe17 	ldw	r2,-8(fp)
 5081f9c:	11000117 	ldw	r4,4(r2)
 5081fa0:	e0bffe17 	ldw	r2,-8(fp)
 5081fa4:	10817b17 	ldw	r2,1516(r2)
 5081fa8:	100b883a 	mov	r5,r2
 5081fac:	e0bffe17 	ldw	r2,-8(fp)
 5081fb0:	10800304 	addi	r2,r2,12
 5081fb4:	1007883a 	mov	r3,r2
 5081fb8:	e0bffe17 	ldw	r2,-8(fp)
 5081fbc:	10817b17 	ldw	r2,1516(r2)
 5081fc0:	1885c83a 	sub	r2,r3,r2
 5081fc4:	118176c4 	addi	r6,r2,1499
 5081fc8:	000f883a 	mov	r7,zero
 5081fcc:	50a6e940 	call	50a6e94 <t_recv>
 5081fd0:	e0bffc15 	stw	r2,-16(fp)
 5081fd4:	e0bffc17 	ldw	r2,-16(fp)
 5081fd8:	10800050 	cmplti	r2,r2,1
 5081fdc:	10000a1e 	bne	r2,zero,5082008 <sss_handle_receive+0xec>
 5081fe0:	e0bffe17 	ldw	r2,-8(fp)
 5081fe4:	10c17b17 	ldw	r3,1516(r2)
 5081fe8:	e0bffc17 	ldw	r2,-16(fp)
 5081fec:	1887883a 	add	r3,r3,r2
 5081ff0:	e0bffe17 	ldw	r2,-8(fp)
 5081ff4:	10c17b15 	stw	r3,1516(r2)
 5081ff8:	e0bffe17 	ldw	r2,-8(fp)
 5081ffc:	10817b17 	ldw	r2,1516(r2)
 5082000:	10800044 	addi	r2,r2,1
 5082004:	10000005 	stb	zero,0(r2)
 5082008:	e0bffe17 	ldw	r2,-8(fp)
 508200c:	10800217 	ldw	r2,8(r2)
 5082010:	1005003a 	cmpeq	r2,r2,zero
 5082014:	1000031e 	bne	r2,zero,5082024 <sss_handle_receive+0x108>
 5082018:	00800084 	movi	r2,2
 508201c:	e0bfff15 	stw	r2,-4(fp)
 5082020:	00000106 	br	5082028 <sss_handle_receive+0x10c>
 5082024:	e03fff15 	stw	zero,-4(fp)
 5082028:	e0bffe17 	ldw	r2,-8(fp)
 508202c:	e0ffff17 	ldw	r3,-4(fp)
 5082030:	10c00015 	stw	r3,0(r2)
 5082034:	e0bffe17 	ldw	r2,-8(fp)
 5082038:	10817a17 	ldw	r2,1512(r2)
 508203c:	1007883a 	mov	r3,r2
 5082040:	e0bffe17 	ldw	r2,-8(fp)
 5082044:	10800304 	addi	r2,r2,12
 5082048:	1885c83a 	sub	r2,r3,r2
 508204c:	e0bffd15 	stw	r2,-12(fp)
 5082050:	e0bffe17 	ldw	r2,-8(fp)
 5082054:	11000304 	addi	r4,r2,12
 5082058:	e0bffe17 	ldw	r2,-8(fp)
 508205c:	11417a17 	ldw	r5,1512(r2)
 5082060:	e0bffe17 	ldw	r2,-8(fp)
 5082064:	10817b17 	ldw	r2,1516(r2)
 5082068:	1007883a 	mov	r3,r2
 508206c:	e0bffe17 	ldw	r2,-8(fp)
 5082070:	10817a17 	ldw	r2,1512(r2)
 5082074:	1885c83a 	sub	r2,r3,r2
 5082078:	100d883a 	mov	r6,r2
 508207c:	50825b80 	call	50825b8 <memmove>
 5082080:	e0bffe17 	ldw	r2,-8(fp)
 5082084:	10c00304 	addi	r3,r2,12
 5082088:	e0bffe17 	ldw	r2,-8(fp)
 508208c:	10c17a15 	stw	r3,1512(r2)
 5082090:	e0bffe17 	ldw	r2,-8(fp)
 5082094:	10c17b17 	ldw	r3,1516(r2)
 5082098:	e0bffd17 	ldw	r2,-12(fp)
 508209c:	1887c83a 	sub	r3,r3,r2
 50820a0:	e0bffe17 	ldw	r2,-8(fp)
 50820a4:	10c17b15 	stw	r3,1516(r2)
 50820a8:	e0bffe17 	ldw	r2,-8(fp)
 50820ac:	10817b17 	ldw	r2,1516(r2)
 50820b0:	e0fffd17 	ldw	r3,-12(fp)
 50820b4:	1009883a 	mov	r4,r2
 50820b8:	180d883a 	mov	r6,r3
 50820bc:	000b883a 	mov	r5,zero
 50820c0:	50826980 	call	5082698 <memset>
 50820c4:	e0bffe17 	ldw	r2,-8(fp)
 50820c8:	10800017 	ldw	r2,0(r2)
 50820cc:	10800098 	cmpnei	r2,r2,2
 50820d0:	103fa51e 	bne	r2,zero,5081f68 <sss_handle_receive+0x4c>
 50820d4:	01014374 	movhi	r4,1293
 50820d8:	212a5604 	addi	r4,r4,-22184
 50820dc:	5082ad80 	call	5082ad8 <puts>
 50820e0:	e0bffe17 	ldw	r2,-8(fp)
 50820e4:	11000117 	ldw	r4,4(r2)
 50820e8:	509ab940 	call	509ab94 <close>
 50820ec:	e13ffe17 	ldw	r4,-8(fp)
 50820f0:	5081ab80 	call	5081ab8 <sss_reset_connection>
 50820f4:	e037883a 	mov	sp,fp
 50820f8:	dfc00117 	ldw	ra,4(sp)
 50820fc:	df000017 	ldw	fp,0(sp)
 5082100:	dec00204 	addi	sp,sp,8
 5082104:	f800283a 	ret

05082108 <SSSSimpleSocketServerTask>:
 5082108:	deffb604 	addi	sp,sp,-296
 508210c:	dfc04915 	stw	ra,292(sp)
 5082110:	df004815 	stw	fp,288(sp)
 5082114:	df004804 	addi	fp,sp,288
 5082118:	01000084 	movi	r4,2
 508211c:	01400044 	movi	r5,1
 5082120:	000d883a 	mov	r6,zero
 5082124:	50a60600 	call	50a6060 <t_socket>
 5082128:	e0bfba15 	stw	r2,-280(fp)
 508212c:	e0bfba17 	ldw	r2,-280(fp)
 5082130:	1004403a 	cmpge	r2,r2,zero
 5082134:	1000041e 	bne	r2,zero,5082148 <SSSSimpleSocketServerTask+0x40>
 5082138:	01003fc4 	movi	r4,255
 508213c:	01414374 	movhi	r5,1293
 5082140:	296a6004 	addi	r5,r5,-22144
 5082144:	508082c0 	call	508082c <alt_NetworkErrorHandler>
 5082148:	00800084 	movi	r2,2
 508214c:	e0bfbb0d 	sth	r2,-276(fp)
 5082150:	00878004 	movi	r2,7680
 5082154:	e0bfbb8d 	sth	r2,-274(fp)
 5082158:	e03fbc15 	stw	zero,-272(fp)
 508215c:	e17fbb04 	addi	r5,fp,-276
 5082160:	e13fba17 	ldw	r4,-280(fp)
 5082164:	01800404 	movi	r6,16
 5082168:	50a60f00 	call	50a60f0 <t_bind>
 508216c:	1004403a 	cmpge	r2,r2,zero
 5082170:	1000041e 	bne	r2,zero,5082184 <SSSSimpleSocketServerTask+0x7c>
 5082174:	01003fc4 	movi	r4,255
 5082178:	01414374 	movhi	r5,1293
 508217c:	296a6904 	addi	r5,r5,-22108
 5082180:	508082c0 	call	508082c <alt_NetworkErrorHandler>
 5082184:	e13fba17 	ldw	r4,-280(fp)
 5082188:	01400044 	movi	r5,1
 508218c:	50a626c0 	call	50a626c <t_listen>
 5082190:	1004403a 	cmpge	r2,r2,zero
 5082194:	1000041e 	bne	r2,zero,50821a8 <SSSSimpleSocketServerTask+0xa0>
 5082198:	01003fc4 	movi	r4,255
 508219c:	01414374 	movhi	r5,1293
 50821a0:	296a6f04 	addi	r5,r5,-22084
 50821a4:	508082c0 	call	508082c <alt_NetworkErrorHandler>
 50821a8:	01014374 	movhi	r4,1293
 50821ac:	210ee804 	addi	r4,r4,15264
 50821b0:	5081ab80 	call	5081ab8 <sss_reset_connection>
 50821b4:	01014374 	movhi	r4,1293
 50821b8:	212a7604 	addi	r4,r4,-22056
 50821bc:	01400784 	movi	r5,30
 50821c0:	50827b00 	call	50827b0 <printf>
 50821c4:	00000006 	br	50821c8 <SSSSimpleSocketServerTask+0xc0>
 50821c8:	e03fbf15 	stw	zero,-260(fp)
 50821cc:	e17fbf04 	addi	r5,fp,-260
 50821d0:	e13fba17 	ldw	r4,-280(fp)
 50821d4:	50ab64c0 	call	50ab64c <ifd_set>
 50821d8:	e0bfba17 	ldw	r2,-280(fp)
 50821dc:	10800044 	addi	r2,r2,1
 50821e0:	e0bfb915 	stw	r2,-284(fp)
 50821e4:	00814374 	movhi	r2,1293
 50821e8:	108ee804 	addi	r2,r2,15264
 50821ec:	10800117 	ldw	r2,4(r2)
 50821f0:	10bfffe0 	cmpeqi	r2,r2,-1
 50821f4:	10000f1e 	bne	r2,zero,5082234 <SSSSimpleSocketServerTask+0x12c>
 50821f8:	00814374 	movhi	r2,1293
 50821fc:	108ee804 	addi	r2,r2,15264
 5082200:	11000117 	ldw	r4,4(r2)
 5082204:	e17fbf04 	addi	r5,fp,-260
 5082208:	50ab64c0 	call	50ab64c <ifd_set>
 508220c:	00814374 	movhi	r2,1293
 5082210:	108ee804 	addi	r2,r2,15264
 5082214:	10c00117 	ldw	r3,4(r2)
 5082218:	e0bfb917 	ldw	r2,-284(fp)
 508221c:	18800516 	blt	r3,r2,5082234 <SSSSimpleSocketServerTask+0x12c>
 5082220:	00814374 	movhi	r2,1293
 5082224:	108ee804 	addi	r2,r2,15264
 5082228:	10800117 	ldw	r2,4(r2)
 508222c:	10800044 	addi	r2,r2,1
 5082230:	e0bfb915 	stw	r2,-284(fp)
 5082234:	e17fbf04 	addi	r5,fp,-260
 5082238:	d8000015 	stw	zero,0(sp)
 508223c:	e13fb917 	ldw	r4,-284(fp)
 5082240:	000d883a 	mov	r6,zero
 5082244:	000f883a 	mov	r7,zero
 5082248:	509daac0 	call	509daac <bsd_select>
 508224c:	e17fbf04 	addi	r5,fp,-260
 5082250:	e13fba17 	ldw	r4,-280(fp)
 5082254:	50ab6c00 	call	50ab6c0 <ifd_isset>
 5082258:	1005003a 	cmpeq	r2,r2,zero
 508225c:	1000051e 	bne	r2,zero,5082274 <SSSSimpleSocketServerTask+0x16c>
 5082260:	e13fba17 	ldw	r4,-280(fp)
 5082264:	01414374 	movhi	r5,1293
 5082268:	294ee804 	addi	r5,r5,15264
 508226c:	5081cb80 	call	5081cb8 <sss_handle_accept>
 5082270:	003fd506 	br	50821c8 <SSSSimpleSocketServerTask+0xc0>
 5082274:	00814374 	movhi	r2,1293
 5082278:	108ee804 	addi	r2,r2,15264
 508227c:	10800117 	ldw	r2,4(r2)
 5082280:	10bfffe0 	cmpeqi	r2,r2,-1
 5082284:	103fd01e 	bne	r2,zero,50821c8 <SSSSimpleSocketServerTask+0xc0>
 5082288:	00814374 	movhi	r2,1293
 508228c:	108ee804 	addi	r2,r2,15264
 5082290:	11000117 	ldw	r4,4(r2)
 5082294:	e17fbf04 	addi	r5,fp,-260
 5082298:	50ab6c00 	call	50ab6c0 <ifd_isset>
 508229c:	1005003a 	cmpeq	r2,r2,zero
 50822a0:	103fc91e 	bne	r2,zero,50821c8 <SSSSimpleSocketServerTask+0xc0>
 50822a4:	01014374 	movhi	r4,1293
 50822a8:	210ee804 	addi	r4,r4,15264
 50822ac:	5081f1c0 	call	5081f1c <sss_handle_receive>
 50822b0:	003fc506 	br	50821c8 <SSSSimpleSocketServerTask+0xc0>

050822b4 <fprintf>:
 50822b4:	defffc04 	addi	sp,sp,-16
 50822b8:	dfc00115 	stw	ra,4(sp)
 50822bc:	d9800215 	stw	r6,8(sp)
 50822c0:	d9c00315 	stw	r7,12(sp)
 50822c4:	d8800204 	addi	r2,sp,8
 50822c8:	100d883a 	mov	r6,r2
 50822cc:	d8800015 	stw	r2,0(sp)
 50822d0:	50852f40 	call	50852f4 <__vfprintf_internal>
 50822d4:	dfc00117 	ldw	ra,4(sp)
 50822d8:	dec00404 	addi	sp,sp,16
 50822dc:	f800283a 	ret

050822e0 <_fprintf_r>:
 50822e0:	defffd04 	addi	sp,sp,-12
 50822e4:	2807883a 	mov	r3,r5
 50822e8:	dfc00115 	stw	ra,4(sp)
 50822ec:	d9c00215 	stw	r7,8(sp)
 50822f0:	d8800204 	addi	r2,sp,8
 50822f4:	300b883a 	mov	r5,r6
 50822f8:	1809883a 	mov	r4,r3
 50822fc:	100d883a 	mov	r6,r2
 5082300:	d8800015 	stw	r2,0(sp)
 5082304:	50852f40 	call	50852f4 <__vfprintf_internal>
 5082308:	dfc00117 	ldw	ra,4(sp)
 508230c:	dec00304 	addi	sp,sp,12
 5082310:	f800283a 	ret

05082314 <_fwrite_r>:
 5082314:	defff604 	addi	sp,sp,-40
 5082318:	dc400615 	stw	r17,24(sp)
 508231c:	39a3383a 	mul	r17,r7,r6
 5082320:	00800044 	movi	r2,1
 5082324:	dcc00815 	stw	r19,32(sp)
 5082328:	dc800715 	stw	r18,28(sp)
 508232c:	dc000515 	stw	r16,20(sp)
 5082330:	dfc00915 	stw	ra,36(sp)
 5082334:	3825883a 	mov	r18,r7
 5082338:	3027883a 	mov	r19,r6
 508233c:	2021883a 	mov	r16,r4
 5082340:	d9400015 	stw	r5,0(sp)
 5082344:	d8800315 	stw	r2,12(sp)
 5082348:	dc400115 	stw	r17,4(sp)
 508234c:	dc400415 	stw	r17,16(sp)
 5082350:	dec00215 	stw	sp,8(sp)
 5082354:	20000226 	beq	r4,zero,5082360 <_fwrite_r+0x4c>
 5082358:	20800e17 	ldw	r2,56(r4)
 508235c:	10001226 	beq	r2,zero,50823a8 <_fwrite_r+0x94>
 5082360:	d9400a17 	ldw	r5,40(sp)
 5082364:	8009883a 	mov	r4,r16
 5082368:	d9800204 	addi	r6,sp,8
 508236c:	50877e80 	call	50877e8 <__sfvwrite_r>
 5082370:	980b883a 	mov	r5,r19
 5082374:	10000426 	beq	r2,zero,5082388 <_fwrite_r+0x74>
 5082378:	d9000417 	ldw	r4,16(sp)
 508237c:	8909c83a 	sub	r4,r17,r4
 5082380:	508c5a80 	call	508c5a8 <__udivsi3>
 5082384:	1025883a 	mov	r18,r2
 5082388:	9005883a 	mov	r2,r18
 508238c:	dfc00917 	ldw	ra,36(sp)
 5082390:	dcc00817 	ldw	r19,32(sp)
 5082394:	dc800717 	ldw	r18,28(sp)
 5082398:	dc400617 	ldw	r17,24(sp)
 508239c:	dc000517 	ldw	r16,20(sp)
 50823a0:	dec00a04 	addi	sp,sp,40
 50823a4:	f800283a 	ret
 50823a8:	50870040 	call	5087004 <__sinit>
 50823ac:	003fec06 	br	5082360 <_fwrite_r+0x4c>

050823b0 <fwrite>:
 50823b0:	00814374 	movhi	r2,1293
 50823b4:	10860504 	addi	r2,r2,6164
 50823b8:	2017883a 	mov	r11,r4
 50823bc:	11000017 	ldw	r4,0(r2)
 50823c0:	defffe04 	addi	sp,sp,-8
 50823c4:	3013883a 	mov	r9,r6
 50823c8:	2805883a 	mov	r2,r5
 50823cc:	d9c00015 	stw	r7,0(sp)
 50823d0:	580b883a 	mov	r5,r11
 50823d4:	100d883a 	mov	r6,r2
 50823d8:	480f883a 	mov	r7,r9
 50823dc:	dfc00115 	stw	ra,4(sp)
 50823e0:	50823140 	call	5082314 <_fwrite_r>
 50823e4:	dfc00117 	ldw	ra,4(sp)
 50823e8:	dec00204 	addi	sp,sp,8
 50823ec:	f800283a 	ret

050823f0 <getc>:
 50823f0:	defffd04 	addi	sp,sp,-12
 50823f4:	dc400115 	stw	r17,4(sp)
 50823f8:	04414374 	movhi	r17,1293
 50823fc:	8c460504 	addi	r17,r17,6164
 5082400:	88c00017 	ldw	r3,0(r17)
 5082404:	dc000015 	stw	r16,0(sp)
 5082408:	dfc00215 	stw	ra,8(sp)
 508240c:	2021883a 	mov	r16,r4
 5082410:	18000326 	beq	r3,zero,5082420 <getc+0x30>
 5082414:	18800e17 	ldw	r2,56(r3)
 5082418:	1809883a 	mov	r4,r3
 508241c:	10000e26 	beq	r2,zero,5082458 <getc+0x68>
 5082420:	80800117 	ldw	r2,4(r16)
 5082424:	800b883a 	mov	r5,r16
 5082428:	10bfffc4 	addi	r2,r2,-1
 508242c:	80800115 	stw	r2,4(r16)
 5082430:	10000f16 	blt	r2,zero,5082470 <getc+0x80>
 5082434:	80c00017 	ldw	r3,0(r16)
 5082438:	18800003 	ldbu	r2,0(r3)
 508243c:	18c00044 	addi	r3,r3,1
 5082440:	80c00015 	stw	r3,0(r16)
 5082444:	dfc00217 	ldw	ra,8(sp)
 5082448:	dc400117 	ldw	r17,4(sp)
 508244c:	dc000017 	ldw	r16,0(sp)
 5082450:	dec00304 	addi	sp,sp,12
 5082454:	f800283a 	ret
 5082458:	50870040 	call	5087004 <__sinit>
 508245c:	80800117 	ldw	r2,4(r16)
 5082460:	800b883a 	mov	r5,r16
 5082464:	10bfffc4 	addi	r2,r2,-1
 5082468:	80800115 	stw	r2,4(r16)
 508246c:	103ff10e 	bge	r2,zero,5082434 <getc+0x44>
 5082470:	89000017 	ldw	r4,0(r17)
 5082474:	dfc00217 	ldw	ra,8(sp)
 5082478:	dc400117 	ldw	r17,4(sp)
 508247c:	dc000017 	ldw	r16,0(sp)
 5082480:	dec00304 	addi	sp,sp,12
 5082484:	5082aec1 	jmpi	5082aec <__srget_r>

05082488 <_getc_r>:
 5082488:	defffd04 	addi	sp,sp,-12
 508248c:	dc400115 	stw	r17,4(sp)
 5082490:	dc000015 	stw	r16,0(sp)
 5082494:	dfc00215 	stw	ra,8(sp)
 5082498:	2021883a 	mov	r16,r4
 508249c:	2823883a 	mov	r17,r5
 50824a0:	20000226 	beq	r4,zero,50824ac <_getc_r+0x24>
 50824a4:	20800e17 	ldw	r2,56(r4)
 50824a8:	10000f26 	beq	r2,zero,50824e8 <_getc_r+0x60>
 50824ac:	88800117 	ldw	r2,4(r17)
 50824b0:	8009883a 	mov	r4,r16
 50824b4:	880b883a 	mov	r5,r17
 50824b8:	10bfffc4 	addi	r2,r2,-1
 50824bc:	88800115 	stw	r2,4(r17)
 50824c0:	10001016 	blt	r2,zero,5082504 <_getc_r+0x7c>
 50824c4:	88c00017 	ldw	r3,0(r17)
 50824c8:	18800003 	ldbu	r2,0(r3)
 50824cc:	18c00044 	addi	r3,r3,1
 50824d0:	88c00015 	stw	r3,0(r17)
 50824d4:	dfc00217 	ldw	ra,8(sp)
 50824d8:	dc400117 	ldw	r17,4(sp)
 50824dc:	dc000017 	ldw	r16,0(sp)
 50824e0:	dec00304 	addi	sp,sp,12
 50824e4:	f800283a 	ret
 50824e8:	50870040 	call	5087004 <__sinit>
 50824ec:	88800117 	ldw	r2,4(r17)
 50824f0:	8009883a 	mov	r4,r16
 50824f4:	880b883a 	mov	r5,r17
 50824f8:	10bfffc4 	addi	r2,r2,-1
 50824fc:	88800115 	stw	r2,4(r17)
 5082500:	103ff00e 	bge	r2,zero,50824c4 <_getc_r+0x3c>
 5082504:	dfc00217 	ldw	ra,8(sp)
 5082508:	dc400117 	ldw	r17,4(sp)
 508250c:	dc000017 	ldw	r16,0(sp)
 5082510:	dec00304 	addi	sp,sp,12
 5082514:	5082aec1 	jmpi	5082aec <__srget_r>

05082518 <memcpy>:
 5082518:	01c003c4 	movi	r7,15
 508251c:	2007883a 	mov	r3,r4
 5082520:	3980032e 	bgeu	r7,r6,5082530 <memcpy+0x18>
 5082524:	2904b03a 	or	r2,r5,r4
 5082528:	108000cc 	andi	r2,r2,3
 508252c:	10000926 	beq	r2,zero,5082554 <memcpy+0x3c>
 5082530:	30000626 	beq	r6,zero,508254c <memcpy+0x34>
 5082534:	30cd883a 	add	r6,r6,r3
 5082538:	28800003 	ldbu	r2,0(r5)
 508253c:	29400044 	addi	r5,r5,1
 5082540:	18800005 	stb	r2,0(r3)
 5082544:	18c00044 	addi	r3,r3,1
 5082548:	30fffb1e 	bne	r6,r3,5082538 <memcpy+0x20>
 508254c:	2005883a 	mov	r2,r4
 5082550:	f800283a 	ret
 5082554:	3811883a 	mov	r8,r7
 5082558:	200f883a 	mov	r7,r4
 508255c:	28c00017 	ldw	r3,0(r5)
 5082560:	31bffc04 	addi	r6,r6,-16
 5082564:	38c00015 	stw	r3,0(r7)
 5082568:	28800117 	ldw	r2,4(r5)
 508256c:	38800115 	stw	r2,4(r7)
 5082570:	28c00217 	ldw	r3,8(r5)
 5082574:	38c00215 	stw	r3,8(r7)
 5082578:	28800317 	ldw	r2,12(r5)
 508257c:	29400404 	addi	r5,r5,16
 5082580:	38800315 	stw	r2,12(r7)
 5082584:	39c00404 	addi	r7,r7,16
 5082588:	41bff436 	bltu	r8,r6,508255c <memcpy+0x44>
 508258c:	008000c4 	movi	r2,3
 5082590:	1180072e 	bgeu	r2,r6,50825b0 <memcpy+0x98>
 5082594:	1007883a 	mov	r3,r2
 5082598:	28800017 	ldw	r2,0(r5)
 508259c:	31bfff04 	addi	r6,r6,-4
 50825a0:	29400104 	addi	r5,r5,4
 50825a4:	38800015 	stw	r2,0(r7)
 50825a8:	39c00104 	addi	r7,r7,4
 50825ac:	19bffa36 	bltu	r3,r6,5082598 <memcpy+0x80>
 50825b0:	3807883a 	mov	r3,r7
 50825b4:	003fde06 	br	5082530 <memcpy+0x18>

050825b8 <memmove>:
 50825b8:	2807883a 	mov	r3,r5
 50825bc:	2011883a 	mov	r8,r4
 50825c0:	29000c2e 	bgeu	r5,r4,50825f4 <memmove+0x3c>
 50825c4:	298f883a 	add	r7,r5,r6
 50825c8:	21c00a2e 	bgeu	r4,r7,50825f4 <memmove+0x3c>
 50825cc:	30000726 	beq	r6,zero,50825ec <memmove+0x34>
 50825d0:	2187883a 	add	r3,r4,r6
 50825d4:	198dc83a 	sub	r6,r3,r6
 50825d8:	39ffffc4 	addi	r7,r7,-1
 50825dc:	38800003 	ldbu	r2,0(r7)
 50825e0:	18ffffc4 	addi	r3,r3,-1
 50825e4:	18800005 	stb	r2,0(r3)
 50825e8:	19bffb1e 	bne	r3,r6,50825d8 <memmove+0x20>
 50825ec:	2005883a 	mov	r2,r4
 50825f0:	f800283a 	ret
 50825f4:	01c003c4 	movi	r7,15
 50825f8:	39800a36 	bltu	r7,r6,5082624 <memmove+0x6c>
 50825fc:	303ffb26 	beq	r6,zero,50825ec <memmove+0x34>
 5082600:	400f883a 	mov	r7,r8
 5082604:	320d883a 	add	r6,r6,r8
 5082608:	28800003 	ldbu	r2,0(r5)
 508260c:	29400044 	addi	r5,r5,1
 5082610:	38800005 	stb	r2,0(r7)
 5082614:	39c00044 	addi	r7,r7,1
 5082618:	39bffb1e 	bne	r7,r6,5082608 <memmove+0x50>
 508261c:	2005883a 	mov	r2,r4
 5082620:	f800283a 	ret
 5082624:	1904b03a 	or	r2,r3,r4
 5082628:	108000cc 	andi	r2,r2,3
 508262c:	103ff31e 	bne	r2,zero,50825fc <memmove+0x44>
 5082630:	3811883a 	mov	r8,r7
 5082634:	180b883a 	mov	r5,r3
 5082638:	200f883a 	mov	r7,r4
 508263c:	28c00017 	ldw	r3,0(r5)
 5082640:	31bffc04 	addi	r6,r6,-16
 5082644:	38c00015 	stw	r3,0(r7)
 5082648:	28800117 	ldw	r2,4(r5)
 508264c:	38800115 	stw	r2,4(r7)
 5082650:	28c00217 	ldw	r3,8(r5)
 5082654:	38c00215 	stw	r3,8(r7)
 5082658:	28800317 	ldw	r2,12(r5)
 508265c:	29400404 	addi	r5,r5,16
 5082660:	38800315 	stw	r2,12(r7)
 5082664:	39c00404 	addi	r7,r7,16
 5082668:	41bff436 	bltu	r8,r6,508263c <memmove+0x84>
 508266c:	008000c4 	movi	r2,3
 5082670:	1180072e 	bgeu	r2,r6,5082690 <memmove+0xd8>
 5082674:	1007883a 	mov	r3,r2
 5082678:	28800017 	ldw	r2,0(r5)
 508267c:	31bfff04 	addi	r6,r6,-4
 5082680:	29400104 	addi	r5,r5,4
 5082684:	38800015 	stw	r2,0(r7)
 5082688:	39c00104 	addi	r7,r7,4
 508268c:	19bffa36 	bltu	r3,r6,5082678 <memmove+0xc0>
 5082690:	3811883a 	mov	r8,r7
 5082694:	003fd906 	br	50825fc <memmove+0x44>

05082698 <memset>:
 5082698:	008000c4 	movi	r2,3
 508269c:	29403fcc 	andi	r5,r5,255
 50826a0:	2007883a 	mov	r3,r4
 50826a4:	1180022e 	bgeu	r2,r6,50826b0 <memset+0x18>
 50826a8:	2084703a 	and	r2,r4,r2
 50826ac:	10000826 	beq	r2,zero,50826d0 <memset+0x38>
 50826b0:	30000526 	beq	r6,zero,50826c8 <memset+0x30>
 50826b4:	2805883a 	mov	r2,r5
 50826b8:	30cd883a 	add	r6,r6,r3
 50826bc:	18800005 	stb	r2,0(r3)
 50826c0:	18c00044 	addi	r3,r3,1
 50826c4:	19bffd1e 	bne	r3,r6,50826bc <memset+0x24>
 50826c8:	2005883a 	mov	r2,r4
 50826cc:	f800283a 	ret
 50826d0:	2804923a 	slli	r2,r5,8
 50826d4:	020003c4 	movi	r8,15
 50826d8:	200f883a 	mov	r7,r4
 50826dc:	2884b03a 	or	r2,r5,r2
 50826e0:	1006943a 	slli	r3,r2,16
 50826e4:	10c6b03a 	or	r3,r2,r3
 50826e8:	41800a2e 	bgeu	r8,r6,5082714 <memset+0x7c>
 50826ec:	4005883a 	mov	r2,r8
 50826f0:	31bffc04 	addi	r6,r6,-16
 50826f4:	38c00015 	stw	r3,0(r7)
 50826f8:	38c00115 	stw	r3,4(r7)
 50826fc:	38c00215 	stw	r3,8(r7)
 5082700:	38c00315 	stw	r3,12(r7)
 5082704:	39c00404 	addi	r7,r7,16
 5082708:	11bff936 	bltu	r2,r6,50826f0 <memset+0x58>
 508270c:	008000c4 	movi	r2,3
 5082710:	1180052e 	bgeu	r2,r6,5082728 <memset+0x90>
 5082714:	31bfff04 	addi	r6,r6,-4
 5082718:	008000c4 	movi	r2,3
 508271c:	38c00015 	stw	r3,0(r7)
 5082720:	39c00104 	addi	r7,r7,4
 5082724:	11bffb36 	bltu	r2,r6,5082714 <memset+0x7c>
 5082728:	3807883a 	mov	r3,r7
 508272c:	003fe006 	br	50826b0 <memset+0x18>

05082730 <_perror_r>:
 5082730:	defffe04 	addi	sp,sp,-8
 5082734:	dc000015 	stw	r16,0(sp)
 5082738:	dfc00115 	stw	ra,4(sp)
 508273c:	2021883a 	mov	r16,r4
 5082740:	28000326 	beq	r5,zero,5082750 <_perror_r+0x20>
 5082744:	28800007 	ldb	r2,0(r5)
 5082748:	2809883a 	mov	r4,r5
 508274c:	10000c1e 	bne	r2,zero,5082780 <_perror_r+0x50>
 5082750:	81000017 	ldw	r4,0(r16)
 5082754:	5082d000 	call	5082d00 <strerror>
 5082758:	1009883a 	mov	r4,r2
 508275c:	10000226 	beq	r2,zero,5082768 <_perror_r+0x38>
 5082760:	81400317 	ldw	r5,12(r16)
 5082764:	508738c0 	call	508738c <fputs>
 5082768:	81400317 	ldw	r5,12(r16)
 508276c:	01000284 	movi	r4,10
 5082770:	dfc00117 	ldw	ra,4(sp)
 5082774:	dc000017 	ldw	r16,0(sp)
 5082778:	dec00204 	addi	sp,sp,8
 508277c:	508725c1 	jmpi	508725c <fputc>
 5082780:	81400317 	ldw	r5,12(r16)
 5082784:	508738c0 	call	508738c <fputs>
 5082788:	81400317 	ldw	r5,12(r16)
 508278c:	01014374 	movhi	r4,1293
 5082790:	212b2604 	addi	r4,r4,-21352
 5082794:	508738c0 	call	508738c <fputs>
 5082798:	003fed06 	br	5082750 <_perror_r+0x20>

0508279c <perror>:
 508279c:	00814374 	movhi	r2,1293
 50827a0:	10860504 	addi	r2,r2,6164
 50827a4:	200b883a 	mov	r5,r4
 50827a8:	11000017 	ldw	r4,0(r2)
 50827ac:	50827301 	jmpi	5082730 <_perror_r>

050827b0 <printf>:
 50827b0:	defffb04 	addi	sp,sp,-20
 50827b4:	dfc00115 	stw	ra,4(sp)
 50827b8:	d9400215 	stw	r5,8(sp)
 50827bc:	d9800315 	stw	r6,12(sp)
 50827c0:	d9c00415 	stw	r7,16(sp)
 50827c4:	00814374 	movhi	r2,1293
 50827c8:	10860504 	addi	r2,r2,6164
 50827cc:	10c00017 	ldw	r3,0(r2)
 50827d0:	200b883a 	mov	r5,r4
 50827d4:	d8800204 	addi	r2,sp,8
 50827d8:	19000217 	ldw	r4,8(r3)
 50827dc:	100d883a 	mov	r6,r2
 50827e0:	d8800015 	stw	r2,0(sp)
 50827e4:	50852f40 	call	50852f4 <__vfprintf_internal>
 50827e8:	dfc00117 	ldw	ra,4(sp)
 50827ec:	dec00504 	addi	sp,sp,20
 50827f0:	f800283a 	ret

050827f4 <_printf_r>:
 50827f4:	defffc04 	addi	sp,sp,-16
 50827f8:	dfc00115 	stw	ra,4(sp)
 50827fc:	d9800215 	stw	r6,8(sp)
 5082800:	d9c00315 	stw	r7,12(sp)
 5082804:	280d883a 	mov	r6,r5
 5082808:	21400217 	ldw	r5,8(r4)
 508280c:	d8c00204 	addi	r3,sp,8
 5082810:	180f883a 	mov	r7,r3
 5082814:	d8c00015 	stw	r3,0(sp)
 5082818:	50834480 	call	5083448 <___vfprintf_internal_r>
 508281c:	dfc00117 	ldw	ra,4(sp)
 5082820:	dec00404 	addi	sp,sp,16
 5082824:	f800283a 	ret

05082828 <putc>:
 5082828:	defffc04 	addi	sp,sp,-16
 508282c:	dc800215 	stw	r18,8(sp)
 5082830:	04814374 	movhi	r18,1293
 5082834:	94860504 	addi	r18,r18,6164
 5082838:	90c00017 	ldw	r3,0(r18)
 508283c:	dc400115 	stw	r17,4(sp)
 5082840:	dc000015 	stw	r16,0(sp)
 5082844:	dfc00315 	stw	ra,12(sp)
 5082848:	2023883a 	mov	r17,r4
 508284c:	2821883a 	mov	r16,r5
 5082850:	18000226 	beq	r3,zero,508285c <putc+0x34>
 5082854:	18800e17 	ldw	r2,56(r3)
 5082858:	10001126 	beq	r2,zero,50828a0 <putc+0x78>
 508285c:	80800217 	ldw	r2,8(r16)
 5082860:	10ffffc4 	addi	r3,r2,-1
 5082864:	80c00215 	stw	r3,8(r16)
 5082868:	18001316 	blt	r3,zero,50828b8 <putc+0x90>
 508286c:	80800017 	ldw	r2,0(r16)
 5082870:	14400005 	stb	r17,0(r2)
 5082874:	80c00017 	ldw	r3,0(r16)
 5082878:	18800044 	addi	r2,r3,1
 508287c:	18c00003 	ldbu	r3,0(r3)
 5082880:	80800015 	stw	r2,0(r16)
 5082884:	1805883a 	mov	r2,r3
 5082888:	dfc00317 	ldw	ra,12(sp)
 508288c:	dc800217 	ldw	r18,8(sp)
 5082890:	dc400117 	ldw	r17,4(sp)
 5082894:	dc000017 	ldw	r16,0(sp)
 5082898:	dec00404 	addi	sp,sp,16
 508289c:	f800283a 	ret
 50828a0:	1809883a 	mov	r4,r3
 50828a4:	50870040 	call	5087004 <__sinit>
 50828a8:	80800217 	ldw	r2,8(r16)
 50828ac:	10ffffc4 	addi	r3,r2,-1
 50828b0:	80c00215 	stw	r3,8(r16)
 50828b4:	183fed0e 	bge	r3,zero,508286c <putc+0x44>
 50828b8:	80800617 	ldw	r2,24(r16)
 50828bc:	18800f16 	blt	r3,r2,50828fc <putc+0xd4>
 50828c0:	80800017 	ldw	r2,0(r16)
 50828c4:	14400005 	stb	r17,0(r2)
 50828c8:	81000017 	ldw	r4,0(r16)
 50828cc:	00800284 	movi	r2,10
 50828d0:	20c00003 	ldbu	r3,0(r4)
 50828d4:	18801226 	beq	r3,r2,5082920 <putc+0xf8>
 50828d8:	20800044 	addi	r2,r4,1
 50828dc:	80800015 	stw	r2,0(r16)
 50828e0:	1805883a 	mov	r2,r3
 50828e4:	dfc00317 	ldw	ra,12(sp)
 50828e8:	dc800217 	ldw	r18,8(sp)
 50828ec:	dc400117 	ldw	r17,4(sp)
 50828f0:	dc000017 	ldw	r16,0(sp)
 50828f4:	dec00404 	addi	sp,sp,16
 50828f8:	f800283a 	ret
 50828fc:	91000017 	ldw	r4,0(r18)
 5082900:	880b883a 	mov	r5,r17
 5082904:	800d883a 	mov	r6,r16
 5082908:	dfc00317 	ldw	ra,12(sp)
 508290c:	dc800217 	ldw	r18,8(sp)
 5082910:	dc400117 	ldw	r17,4(sp)
 5082914:	dc000017 	ldw	r16,0(sp)
 5082918:	dec00404 	addi	sp,sp,16
 508291c:	50853181 	jmpi	5085318 <__swbuf_r>
 5082920:	91000017 	ldw	r4,0(r18)
 5082924:	180b883a 	mov	r5,r3
 5082928:	003ff606 	br	5082904 <putc+0xdc>

0508292c <_putc_r>:
 508292c:	defffc04 	addi	sp,sp,-16
 5082930:	dc400215 	stw	r17,8(sp)
 5082934:	dc000115 	stw	r16,4(sp)
 5082938:	dfc00315 	stw	ra,12(sp)
 508293c:	2021883a 	mov	r16,r4
 5082940:	2823883a 	mov	r17,r5
 5082944:	20000226 	beq	r4,zero,5082950 <_putc_r+0x24>
 5082948:	20800e17 	ldw	r2,56(r4)
 508294c:	10001026 	beq	r2,zero,5082990 <_putc_r+0x64>
 5082950:	30800217 	ldw	r2,8(r6)
 5082954:	10ffffc4 	addi	r3,r2,-1
 5082958:	30c00215 	stw	r3,8(r6)
 508295c:	18001316 	blt	r3,zero,50829ac <_putc_r+0x80>
 5082960:	30800017 	ldw	r2,0(r6)
 5082964:	14400005 	stb	r17,0(r2)
 5082968:	30c00017 	ldw	r3,0(r6)
 508296c:	18800044 	addi	r2,r3,1
 5082970:	18c00003 	ldbu	r3,0(r3)
 5082974:	30800015 	stw	r2,0(r6)
 5082978:	1805883a 	mov	r2,r3
 508297c:	dfc00317 	ldw	ra,12(sp)
 5082980:	dc400217 	ldw	r17,8(sp)
 5082984:	dc000117 	ldw	r16,4(sp)
 5082988:	dec00404 	addi	sp,sp,16
 508298c:	f800283a 	ret
 5082990:	d9800015 	stw	r6,0(sp)
 5082994:	50870040 	call	5087004 <__sinit>
 5082998:	d9800017 	ldw	r6,0(sp)
 508299c:	30800217 	ldw	r2,8(r6)
 50829a0:	10ffffc4 	addi	r3,r2,-1
 50829a4:	30c00215 	stw	r3,8(r6)
 50829a8:	183fed0e 	bge	r3,zero,5082960 <_putc_r+0x34>
 50829ac:	30800617 	ldw	r2,24(r6)
 50829b0:	18800e16 	blt	r3,r2,50829ec <_putc_r+0xc0>
 50829b4:	30800017 	ldw	r2,0(r6)
 50829b8:	14400005 	stb	r17,0(r2)
 50829bc:	31000017 	ldw	r4,0(r6)
 50829c0:	00800284 	movi	r2,10
 50829c4:	20c00003 	ldbu	r3,0(r4)
 50829c8:	18800f26 	beq	r3,r2,5082a08 <_putc_r+0xdc>
 50829cc:	20800044 	addi	r2,r4,1
 50829d0:	30800015 	stw	r2,0(r6)
 50829d4:	1805883a 	mov	r2,r3
 50829d8:	dfc00317 	ldw	ra,12(sp)
 50829dc:	dc400217 	ldw	r17,8(sp)
 50829e0:	dc000117 	ldw	r16,4(sp)
 50829e4:	dec00404 	addi	sp,sp,16
 50829e8:	f800283a 	ret
 50829ec:	8009883a 	mov	r4,r16
 50829f0:	880b883a 	mov	r5,r17
 50829f4:	dfc00317 	ldw	ra,12(sp)
 50829f8:	dc400217 	ldw	r17,8(sp)
 50829fc:	dc000117 	ldw	r16,4(sp)
 5082a00:	dec00404 	addi	sp,sp,16
 5082a04:	50853181 	jmpi	5085318 <__swbuf_r>
 5082a08:	8009883a 	mov	r4,r16
 5082a0c:	180b883a 	mov	r5,r3
 5082a10:	003ff806 	br	50829f4 <_putc_r+0xc8>

05082a14 <putchar>:
 5082a14:	00814374 	movhi	r2,1293
 5082a18:	10860504 	addi	r2,r2,6164
 5082a1c:	11800017 	ldw	r6,0(r2)
 5082a20:	200b883a 	mov	r5,r4
 5082a24:	3009883a 	mov	r4,r6
 5082a28:	31800217 	ldw	r6,8(r6)
 5082a2c:	508292c1 	jmpi	508292c <_putc_r>

05082a30 <_putchar_r>:
 5082a30:	21800217 	ldw	r6,8(r4)
 5082a34:	508292c1 	jmpi	508292c <_putc_r>

05082a38 <_puts_r>:
 5082a38:	defff604 	addi	sp,sp,-40
 5082a3c:	dc400715 	stw	r17,28(sp)
 5082a40:	2023883a 	mov	r17,r4
 5082a44:	2809883a 	mov	r4,r5
 5082a48:	dfc00915 	stw	ra,36(sp)
 5082a4c:	dcc00815 	stw	r19,32(sp)
 5082a50:	2827883a 	mov	r19,r5
 5082a54:	50833740 	call	5083374 <strlen>
 5082a58:	89400217 	ldw	r5,8(r17)
 5082a5c:	00c14374 	movhi	r3,1293
 5082a60:	18eb2704 	addi	r3,r3,-21348
 5082a64:	01c00044 	movi	r7,1
 5082a68:	12000044 	addi	r8,r2,1
 5082a6c:	d8c00515 	stw	r3,20(sp)
 5082a70:	d9c00615 	stw	r7,24(sp)
 5082a74:	d8c00304 	addi	r3,sp,12
 5082a78:	01c00084 	movi	r7,2
 5082a7c:	8809883a 	mov	r4,r17
 5082a80:	d80d883a 	mov	r6,sp
 5082a84:	d8c00015 	stw	r3,0(sp)
 5082a88:	dcc00315 	stw	r19,12(sp)
 5082a8c:	da000215 	stw	r8,8(sp)
 5082a90:	d9c00115 	stw	r7,4(sp)
 5082a94:	d8800415 	stw	r2,16(sp)
 5082a98:	50877e80 	call	50877e8 <__sfvwrite_r>
 5082a9c:	00ffffc4 	movi	r3,-1
 5082aa0:	10000626 	beq	r2,zero,5082abc <_puts_r+0x84>
 5082aa4:	1805883a 	mov	r2,r3
 5082aa8:	dfc00917 	ldw	ra,36(sp)
 5082aac:	dcc00817 	ldw	r19,32(sp)
 5082ab0:	dc400717 	ldw	r17,28(sp)
 5082ab4:	dec00a04 	addi	sp,sp,40
 5082ab8:	f800283a 	ret
 5082abc:	00c00284 	movi	r3,10
 5082ac0:	1805883a 	mov	r2,r3
 5082ac4:	dfc00917 	ldw	ra,36(sp)
 5082ac8:	dcc00817 	ldw	r19,32(sp)
 5082acc:	dc400717 	ldw	r17,28(sp)
 5082ad0:	dec00a04 	addi	sp,sp,40
 5082ad4:	f800283a 	ret

05082ad8 <puts>:
 5082ad8:	00814374 	movhi	r2,1293
 5082adc:	10860504 	addi	r2,r2,6164
 5082ae0:	200b883a 	mov	r5,r4
 5082ae4:	11000017 	ldw	r4,0(r2)
 5082ae8:	5082a381 	jmpi	5082a38 <_puts_r>

05082aec <__srget_r>:
 5082aec:	defffe04 	addi	sp,sp,-8
 5082af0:	dc000015 	stw	r16,0(sp)
 5082af4:	dfc00115 	stw	ra,4(sp)
 5082af8:	2821883a 	mov	r16,r5
 5082afc:	5089e680 	call	5089e68 <__srefill_r>
 5082b00:	013fffc4 	movi	r4,-1
 5082b04:	1000071e 	bne	r2,zero,5082b24 <__srget_r+0x38>
 5082b08:	80800117 	ldw	r2,4(r16)
 5082b0c:	81000017 	ldw	r4,0(r16)
 5082b10:	10bfffc4 	addi	r2,r2,-1
 5082b14:	20c00044 	addi	r3,r4,1
 5082b18:	80800115 	stw	r2,4(r16)
 5082b1c:	21000003 	ldbu	r4,0(r4)
 5082b20:	80c00015 	stw	r3,0(r16)
 5082b24:	2005883a 	mov	r2,r4
 5082b28:	dfc00117 	ldw	ra,4(sp)
 5082b2c:	dc000017 	ldw	r16,0(sp)
 5082b30:	dec00204 	addi	sp,sp,8
 5082b34:	f800283a 	ret

05082b38 <__srget>:
 5082b38:	00814374 	movhi	r2,1293
 5082b3c:	10860504 	addi	r2,r2,6164
 5082b40:	200b883a 	mov	r5,r4
 5082b44:	11000017 	ldw	r4,0(r2)
 5082b48:	5082aec1 	jmpi	5082aec <__srget_r>

05082b4c <sprintf>:
 5082b4c:	deffe504 	addi	sp,sp,-108
 5082b50:	2013883a 	mov	r9,r4
 5082b54:	dfc01815 	stw	ra,96(sp)
 5082b58:	d9801915 	stw	r6,100(sp)
 5082b5c:	d9c01a15 	stw	r7,104(sp)
 5082b60:	d8801904 	addi	r2,sp,100
 5082b64:	d8800015 	stw	r2,0(sp)
 5082b68:	00814374 	movhi	r2,1293
 5082b6c:	10860504 	addi	r2,r2,6164
 5082b70:	11000017 	ldw	r4,0(r2)
 5082b74:	d9c00017 	ldw	r7,0(sp)
 5082b78:	00808204 	movi	r2,520
 5082b7c:	00e00034 	movhi	r3,32768
 5082b80:	18ffffc4 	addi	r3,r3,-1
 5082b84:	280d883a 	mov	r6,r5
 5082b88:	d880040d 	sth	r2,16(sp)
 5082b8c:	d9400104 	addi	r5,sp,4
 5082b90:	00bfffc4 	movi	r2,-1
 5082b94:	d8c00615 	stw	r3,24(sp)
 5082b98:	d8c00315 	stw	r3,12(sp)
 5082b9c:	da400515 	stw	r9,20(sp)
 5082ba0:	d880048d 	sth	r2,18(sp)
 5082ba4:	da400115 	stw	r9,4(sp)
 5082ba8:	50834480 	call	5083448 <___vfprintf_internal_r>
 5082bac:	d8c00117 	ldw	r3,4(sp)
 5082bb0:	18000005 	stb	zero,0(r3)
 5082bb4:	dfc01817 	ldw	ra,96(sp)
 5082bb8:	dec01b04 	addi	sp,sp,108
 5082bbc:	f800283a 	ret

05082bc0 <_sprintf_r>:
 5082bc0:	deffe604 	addi	sp,sp,-104
 5082bc4:	2813883a 	mov	r9,r5
 5082bc8:	dfc01815 	stw	ra,96(sp)
 5082bcc:	d9c01915 	stw	r7,100(sp)
 5082bd0:	d8801904 	addi	r2,sp,100
 5082bd4:	d8800015 	stw	r2,0(sp)
 5082bd8:	100f883a 	mov	r7,r2
 5082bdc:	00808204 	movi	r2,520
 5082be0:	00e00034 	movhi	r3,32768
 5082be4:	18ffffc4 	addi	r3,r3,-1
 5082be8:	d880040d 	sth	r2,16(sp)
 5082bec:	d9400104 	addi	r5,sp,4
 5082bf0:	00bfffc4 	movi	r2,-1
 5082bf4:	d8c00615 	stw	r3,24(sp)
 5082bf8:	d8c00315 	stw	r3,12(sp)
 5082bfc:	da400515 	stw	r9,20(sp)
 5082c00:	d880048d 	sth	r2,18(sp)
 5082c04:	da400115 	stw	r9,4(sp)
 5082c08:	50834480 	call	5083448 <___vfprintf_internal_r>
 5082c0c:	d8c00117 	ldw	r3,4(sp)
 5082c10:	18000005 	stb	zero,0(r3)
 5082c14:	dfc01817 	ldw	ra,96(sp)
 5082c18:	dec01a04 	addi	sp,sp,104
 5082c1c:	f800283a 	ret

05082c20 <strchr>:
 5082c20:	208000cc 	andi	r2,r4,3
 5082c24:	2007883a 	mov	r3,r4
 5082c28:	1000311e 	bne	r2,zero,5082cf0 <strchr+0xd0>
 5082c2c:	29c03fcc 	andi	r7,r5,255
 5082c30:	0015883a 	mov	r10,zero
 5082c34:	0007883a 	mov	r3,zero
 5082c38:	01400104 	movi	r5,4
 5082c3c:	5004923a 	slli	r2,r10,8
 5082c40:	18c00044 	addi	r3,r3,1
 5082c44:	3894b03a 	or	r10,r7,r2
 5082c48:	197ffc1e 	bne	r3,r5,5082c3c <strchr+0x1c>
 5082c4c:	200d883a 	mov	r6,r4
 5082c50:	21000017 	ldw	r4,0(r4)
 5082c54:	017fbff4 	movhi	r5,65279
 5082c58:	297fbfc4 	addi	r5,r5,-257
 5082c5c:	02202074 	movhi	r8,32897
 5082c60:	42202004 	addi	r8,r8,-32640
 5082c64:	2145883a 	add	r2,r4,r5
 5082c68:	1204703a 	and	r2,r2,r8
 5082c6c:	0106303a 	nor	r3,zero,r4
 5082c70:	10c4703a 	and	r2,r2,r3
 5082c74:	1000151e 	bne	r2,zero,5082ccc <strchr+0xac>
 5082c78:	2284f03a 	xor	r2,r4,r10
 5082c7c:	1147883a 	add	r3,r2,r5
 5082c80:	1a06703a 	and	r3,r3,r8
 5082c84:	0084303a 	nor	r2,zero,r2
 5082c88:	10c4703a 	and	r2,r2,r3
 5082c8c:	10000f1e 	bne	r2,zero,5082ccc <strchr+0xac>
 5082c90:	2813883a 	mov	r9,r5
 5082c94:	00000106 	br	5082c9c <strchr+0x7c>
 5082c98:	18000c1e 	bne	r3,zero,5082ccc <strchr+0xac>
 5082c9c:	31800104 	addi	r6,r6,4
 5082ca0:	30800017 	ldw	r2,0(r6)
 5082ca4:	1286f03a 	xor	r3,r2,r10
 5082ca8:	124b883a 	add	r5,r2,r9
 5082cac:	1a49883a 	add	r4,r3,r9
 5082cb0:	2a0a703a 	and	r5,r5,r8
 5082cb4:	0084303a 	nor	r2,zero,r2
 5082cb8:	2208703a 	and	r4,r4,r8
 5082cbc:	00c6303a 	nor	r3,zero,r3
 5082cc0:	1144703a 	and	r2,r2,r5
 5082cc4:	1906703a 	and	r3,r3,r4
 5082cc8:	103ff326 	beq	r2,zero,5082c98 <strchr+0x78>
 5082ccc:	3007883a 	mov	r3,r6
 5082cd0:	00000206 	br	5082cdc <strchr+0xbc>
 5082cd4:	38800426 	beq	r7,r2,5082ce8 <strchr+0xc8>
 5082cd8:	18c00044 	addi	r3,r3,1
 5082cdc:	18800003 	ldbu	r2,0(r3)
 5082ce0:	103ffc1e 	bne	r2,zero,5082cd4 <strchr+0xb4>
 5082ce4:	3800041e 	bne	r7,zero,5082cf8 <strchr+0xd8>
 5082ce8:	1805883a 	mov	r2,r3
 5082cec:	f800283a 	ret
 5082cf0:	29c03fcc 	andi	r7,r5,255
 5082cf4:	003ff906 	br	5082cdc <strchr+0xbc>
 5082cf8:	0005883a 	mov	r2,zero
 5082cfc:	f800283a 	ret

05082d00 <strerror>:
 5082d00:	deffff04 	addi	sp,sp,-4
 5082d04:	00802184 	movi	r2,134
 5082d08:	dfc00015 	stw	ra,0(sp)
 5082d0c:	200b883a 	mov	r5,r4
 5082d10:	11008e36 	bltu	r2,r4,5082f4c <strerror+0x24c>
 5082d14:	2105883a 	add	r2,r4,r4
 5082d18:	1085883a 	add	r2,r2,r2
 5082d1c:	00c14234 	movhi	r3,1288
 5082d20:	18cb4c04 	addi	r3,r3,11568
 5082d24:	10c5883a 	add	r2,r2,r3
 5082d28:	11000017 	ldw	r4,0(r2)
 5082d2c:	2000683a 	jmp	r4
 5082d30:	05082f4c 	andi	r20,zero,8381
 5082d34:	05082f84 	movi	r20,8382
 5082d38:	05082f90 	cmplti	r20,zero,8382
 5082d3c:	05082f9c 	xori	r20,zero,8382
 5082d40:	05082fa8 	cmpgeui	r20,zero,8382
 5082d44:	05082fb4 	movhi	r20,8382
 5082d48:	05082fc0 	call	5082fc <OSCtxSw_SWITCH_PC+0x5082bc>
 5082d4c:	05082fcc 	andi	r20,zero,8383
 5082d50:	05082fd8 	cmpnei	r20,zero,8383
 5082d54:	05082fe4 	muli	r20,zero,8383
 5082d58:	05082ff0 	cmpltui	r20,zero,8383
 5082d5c:	05082ffc 	xorhi	r20,zero,8383
 5082d60:	05083008 	cmpgei	r20,zero,8384
 5082d64:	05083014 	movui	r20,8384
 5082d68:	05083020 	cmpeqi	r20,zero,8384
 5082d6c:	0508302c 	andhi	r20,zero,8384
 5082d70:	05083038 	rdprs	r20,zero,8384
 5082d74:	05083044 	movi	r20,8385
 5082d78:	05083050 	cmplti	r20,zero,8385
 5082d7c:	0508305c 	xori	r20,zero,8385
 5082d80:	05083068 	cmpgeui	r20,zero,8385
 5082d84:	05083074 	movhi	r20,8385
 5082d88:	05083080 	call	508308 <OSCtxSw_SWITCH_PC+0x5082c8>
 5082d8c:	0508308c 	andi	r20,zero,8386
 5082d90:	05083098 	cmpnei	r20,zero,8386
 5082d94:	050830a4 	muli	r20,zero,8386
 5082d98:	050830b0 	cmpltui	r20,zero,8386
 5082d9c:	050830bc 	xorhi	r20,zero,8386
 5082da0:	050830c8 	cmpgei	r20,zero,8387
 5082da4:	050830d4 	movui	r20,8387
 5082da8:	050830e0 	cmpeqi	r20,zero,8387
 5082dac:	050830ec 	andhi	r20,zero,8387
 5082db0:	050830f8 	rdprs	r20,zero,8387
 5082db4:	05083104 	movi	r20,8388
 5082db8:	05083110 	cmplti	r20,zero,8388
 5082dbc:	0508311c 	xori	r20,zero,8388
 5082dc0:	05083128 	cmpgeui	r20,zero,8388
 5082dc4:	05082f4c 	andi	r20,zero,8381
 5082dc8:	05082f4c 	andi	r20,zero,8381
 5082dcc:	05082f4c 	andi	r20,zero,8381
 5082dd0:	05082f4c 	andi	r20,zero,8381
 5082dd4:	05082f4c 	andi	r20,zero,8381
 5082dd8:	05082f4c 	andi	r20,zero,8381
 5082ddc:	05082f4c 	andi	r20,zero,8381
 5082de0:	05082f4c 	andi	r20,zero,8381
 5082de4:	05083134 	movhi	r20,8388
 5082de8:	05083140 	call	508314 <OSCtxSw_SWITCH_PC+0x5082d4>
 5082dec:	05082f4c 	andi	r20,zero,8381
 5082df0:	05082f4c 	andi	r20,zero,8381
 5082df4:	05082f4c 	andi	r20,zero,8381
 5082df8:	05082f4c 	andi	r20,zero,8381
 5082dfc:	05082f4c 	andi	r20,zero,8381
 5082e00:	05082f4c 	andi	r20,zero,8381
 5082e04:	05082f4c 	andi	r20,zero,8381
 5082e08:	05082f4c 	andi	r20,zero,8381
 5082e0c:	05082f4c 	andi	r20,zero,8381
 5082e10:	05082f4c 	andi	r20,zero,8381
 5082e14:	05082f4c 	andi	r20,zero,8381
 5082e18:	05082f4c 	andi	r20,zero,8381
 5082e1c:	05082f4c 	andi	r20,zero,8381
 5082e20:	0508314c 	andi	r20,zero,8389
 5082e24:	05082f4c 	andi	r20,zero,8381
 5082e28:	05083158 	cmpnei	r20,zero,8389
 5082e2c:	05083164 	muli	r20,zero,8389
 5082e30:	05083170 	cmpltui	r20,zero,8389
 5082e34:	0508317c 	xorhi	r20,zero,8389
 5082e38:	05083188 	cmpgei	r20,zero,8390
 5082e3c:	05083194 	movui	r20,8390
 5082e40:	050831a0 	cmpeqi	r20,zero,8390
 5082e44:	050831ac 	andhi	r20,zero,8390
 5082e48:	050831b8 	rdprs	r20,zero,8390
 5082e4c:	050831c4 	movi	r20,8391
 5082e50:	05082f4c 	andi	r20,zero,8381
 5082e54:	05082f4c 	andi	r20,zero,8381
 5082e58:	050831d0 	cmplti	r20,zero,8391
 5082e5c:	05082f4c 	andi	r20,zero,8381
 5082e60:	05082f4c 	andi	r20,zero,8381
 5082e64:	050831dc 	xori	r20,zero,8391
 5082e68:	05082f4c 	andi	r20,zero,8381
 5082e6c:	05082f4c 	andi	r20,zero,8381
 5082e70:	05082f4c 	andi	r20,zero,8381
 5082e74:	05082f4c 	andi	r20,zero,8381
 5082e78:	05082f4c 	andi	r20,zero,8381
 5082e7c:	050831e8 	cmpgeui	r20,zero,8391
 5082e80:	050831f4 	movhi	r20,8391
 5082e84:	05083200 	call	508320 <OSCtxSw_SWITCH_PC+0x5082e0>
 5082e88:	0508320c 	andi	r20,zero,8392
 5082e8c:	05083218 	cmpnei	r20,zero,8392
 5082e90:	05083224 	muli	r20,zero,8392
 5082e94:	05083230 	cmpltui	r20,zero,8392
 5082e98:	0508323c 	xorhi	r20,zero,8392
 5082e9c:	05083248 	cmpgei	r20,zero,8393
 5082ea0:	05083254 	movui	r20,8393
 5082ea4:	05082f4c 	andi	r20,zero,8381
 5082ea8:	05082f4c 	andi	r20,zero,8381
 5082eac:	05083260 	cmpeqi	r20,zero,8393
 5082eb0:	05082f4c 	andi	r20,zero,8381
 5082eb4:	05082f4c 	andi	r20,zero,8381
 5082eb8:	05082f4c 	andi	r20,zero,8381
 5082ebc:	05082f4c 	andi	r20,zero,8381
 5082ec0:	05082f4c 	andi	r20,zero,8381
 5082ec4:	05082f4c 	andi	r20,zero,8381
 5082ec8:	05082f4c 	andi	r20,zero,8381
 5082ecc:	05082f4c 	andi	r20,zero,8381
 5082ed0:	05082f4c 	andi	r20,zero,8381
 5082ed4:	0508326c 	andhi	r20,zero,8393
 5082ed8:	05083278 	rdprs	r20,zero,8393
 5082edc:	05083284 	movi	r20,8394
 5082ee0:	05083290 	cmplti	r20,zero,8394
 5082ee4:	0508329c 	xori	r20,zero,8394
 5082ee8:	050832a8 	cmpgeui	r20,zero,8394
 5082eec:	050832b4 	movhi	r20,8394
 5082ef0:	050832c0 	call	50832c <OSCtxSw_SWITCH_PC+0x5082ec>
 5082ef4:	050832cc 	andi	r20,zero,8395
 5082ef8:	050832d8 	cmpnei	r20,zero,8395
 5082efc:	050832e4 	muli	r20,zero,8395
 5082f00:	050832f0 	cmpltui	r20,zero,8395
 5082f04:	050832fc 	xorhi	r20,zero,8395
 5082f08:	05083308 	cmpgei	r20,zero,8396
 5082f0c:	05083314 	movui	r20,8396
 5082f10:	05083320 	cmpeqi	r20,zero,8396
 5082f14:	0508332c 	andhi	r20,zero,8396
 5082f18:	05083338 	rdprs	r20,zero,8396
 5082f1c:	05083344 	movi	r20,8397
 5082f20:	05083350 	cmplti	r20,zero,8397
 5082f24:	05082f4c 	andi	r20,zero,8381
 5082f28:	05082f4c 	andi	r20,zero,8381
 5082f2c:	0508335c 	xori	r20,zero,8397
 5082f30:	05083368 	cmpgeui	r20,zero,8397
 5082f34:	05082f4c 	andi	r20,zero,8381
 5082f38:	05082f4c 	andi	r20,zero,8381
 5082f3c:	05082f4c 	andi	r20,zero,8381
 5082f40:	05082f4c 	andi	r20,zero,8381
 5082f44:	05082f4c 	andi	r20,zero,8381
 5082f48:	05082f78 	rdprs	r20,zero,8381
 5082f4c:	2809883a 	mov	r4,r5
 5082f50:	50833e80 	call	50833e8 <_user_strerror>
 5082f54:	10000326 	beq	r2,zero,5082f64 <strerror+0x264>
 5082f58:	dfc00017 	ldw	ra,0(sp)
 5082f5c:	dec00104 	addi	sp,sp,4
 5082f60:	f800283a 	ret
 5082f64:	00814374 	movhi	r2,1293
 5082f68:	10ad2004 	addi	r2,r2,-19328
 5082f6c:	dfc00017 	ldw	ra,0(sp)
 5082f70:	dec00104 	addi	sp,sp,4
 5082f74:	f800283a 	ret
 5082f78:	00814374 	movhi	r2,1293
 5082f7c:	10abe304 	addi	r2,r2,-20596
 5082f80:	003ff506 	br	5082f58 <strerror+0x258>
 5082f84:	00814374 	movhi	r2,1293
 5082f88:	10ab3304 	addi	r2,r2,-21300
 5082f8c:	003ff206 	br	5082f58 <strerror+0x258>
 5082f90:	00814374 	movhi	r2,1293
 5082f94:	10ab3604 	addi	r2,r2,-21288
 5082f98:	003fef06 	br	5082f58 <strerror+0x258>
 5082f9c:	00814374 	movhi	r2,1293
 5082fa0:	10ab3d04 	addi	r2,r2,-21260
 5082fa4:	003fec06 	br	5082f58 <strerror+0x258>
 5082fa8:	00814374 	movhi	r2,1293
 5082fac:	10ab4104 	addi	r2,r2,-21244
 5082fb0:	003fe906 	br	5082f58 <strerror+0x258>
 5082fb4:	00814374 	movhi	r2,1293
 5082fb8:	10ab4704 	addi	r2,r2,-21220
 5082fbc:	003fe606 	br	5082f58 <strerror+0x258>
 5082fc0:	00814374 	movhi	r2,1293
 5082fc4:	10ab4a04 	addi	r2,r2,-21208
 5082fc8:	003fe306 	br	5082f58 <strerror+0x258>
 5082fcc:	00814374 	movhi	r2,1293
 5082fd0:	10ab5104 	addi	r2,r2,-21180
 5082fd4:	003fe006 	br	5082f58 <strerror+0x258>
 5082fd8:	00814374 	movhi	r2,1293
 5082fdc:	10ab5604 	addi	r2,r2,-21160
 5082fe0:	003fdd06 	br	5082f58 <strerror+0x258>
 5082fe4:	00814374 	movhi	r2,1293
 5082fe8:	10ab6204 	addi	r2,r2,-21112
 5082fec:	003fda06 	br	5082f58 <strerror+0x258>
 5082ff0:	00814374 	movhi	r2,1293
 5082ff4:	10ab6604 	addi	r2,r2,-21096
 5082ff8:	003fd706 	br	5082f58 <strerror+0x258>
 5082ffc:	00814374 	movhi	r2,1293
 5083000:	10ab7104 	addi	r2,r2,-21052
 5083004:	003fd406 	br	5082f58 <strerror+0x258>
 5083008:	00814374 	movhi	r2,1293
 508300c:	10ab7604 	addi	r2,r2,-21032
 5083010:	003fd106 	br	5082f58 <strerror+0x258>
 5083014:	00814374 	movhi	r2,1293
 5083018:	10ab7b04 	addi	r2,r2,-21012
 508301c:	003fce06 	br	5082f58 <strerror+0x258>
 5083020:	00814374 	movhi	r2,1293
 5083024:	10ab8004 	addi	r2,r2,-20992
 5083028:	003fcb06 	br	5082f58 <strerror+0x258>
 508302c:	00814374 	movhi	r2,1293
 5083030:	10ab8304 	addi	r2,r2,-20980
 5083034:	003fc806 	br	5082f58 <strerror+0x258>
 5083038:	00814374 	movhi	r2,1293
 508303c:	10ab8904 	addi	r2,r2,-20956
 5083040:	003fc506 	br	5082f58 <strerror+0x258>
 5083044:	00814374 	movhi	r2,1293
 5083048:	10ab8f04 	addi	r2,r2,-20932
 508304c:	003fc206 	br	5082f58 <strerror+0x258>
 5083050:	00814374 	movhi	r2,1293
 5083054:	10ab9204 	addi	r2,r2,-20920
 5083058:	003fbf06 	br	5082f58 <strerror+0x258>
 508305c:	00814374 	movhi	r2,1293
 5083060:	10ab9704 	addi	r2,r2,-20900
 5083064:	003fbc06 	br	5082f58 <strerror+0x258>
 5083068:	00814374 	movhi	r2,1293
 508306c:	10ab9b04 	addi	r2,r2,-20884
 5083070:	003fb906 	br	5082f58 <strerror+0x258>
 5083074:	00814374 	movhi	r2,1293
 5083078:	10abab04 	addi	r2,r2,-20820
 508307c:	003fb606 	br	5082f58 <strerror+0x258>
 5083080:	00814374 	movhi	r2,1293
 5083084:	10abaf04 	addi	r2,r2,-20804
 5083088:	003fb306 	br	5082f58 <strerror+0x258>
 508308c:	00814374 	movhi	r2,1293
 5083090:	10abbd04 	addi	r2,r2,-20748
 5083094:	003fb006 	br	5082f58 <strerror+0x258>
 5083098:	00814374 	movhi	r2,1293
 508309c:	10abc504 	addi	r2,r2,-20716
 50830a0:	003fad06 	br	5082f58 <strerror+0x258>
 50830a4:	00814374 	movhi	r2,1293
 50830a8:	10abca04 	addi	r2,r2,-20696
 50830ac:	003faa06 	br	5082f58 <strerror+0x258>
 50830b0:	00814374 	movhi	r2,1293
 50830b4:	10abd004 	addi	r2,r2,-20672
 50830b8:	003fa706 	br	5082f58 <strerror+0x258>
 50830bc:	00814374 	movhi	r2,1293
 50830c0:	10abd404 	addi	r2,r2,-20656
 50830c4:	003fa406 	br	5082f58 <strerror+0x258>
 50830c8:	00814374 	movhi	r2,1293
 50830cc:	10abdd04 	addi	r2,r2,-20620
 50830d0:	003fa106 	br	5082f58 <strerror+0x258>
 50830d4:	00814374 	movhi	r2,1293
 50830d8:	10abe704 	addi	r2,r2,-20580
 50830dc:	003f9e06 	br	5082f58 <strerror+0x258>
 50830e0:	00814374 	movhi	r2,1293
 50830e4:	10abeb04 	addi	r2,r2,-20564
 50830e8:	003f9b06 	br	5082f58 <strerror+0x258>
 50830ec:	00814374 	movhi	r2,1293
 50830f0:	10abf104 	addi	r2,r2,-20540
 50830f4:	003f9806 	br	5082f58 <strerror+0x258>
 50830f8:	00814374 	movhi	r2,1293
 50830fc:	10abf504 	addi	r2,r2,-20524
 5083100:	003f9506 	br	5082f58 <strerror+0x258>
 5083104:	00814374 	movhi	r2,1293
 5083108:	10abf804 	addi	r2,r2,-20512
 508310c:	003f9206 	br	5082f58 <strerror+0x258>
 5083110:	00814374 	movhi	r2,1293
 5083114:	10abfc04 	addi	r2,r2,-20496
 5083118:	003f8f06 	br	5082f58 <strerror+0x258>
 508311c:	00814374 	movhi	r2,1293
 5083120:	10ac0104 	addi	r2,r2,-20476
 5083124:	003f8c06 	br	5082f58 <strerror+0x258>
 5083128:	00814374 	movhi	r2,1293
 508312c:	10ac0804 	addi	r2,r2,-20448
 5083130:	003f8906 	br	5082f58 <strerror+0x258>
 5083134:	00814374 	movhi	r2,1293
 5083138:	10ac0d04 	addi	r2,r2,-20428
 508313c:	003f8606 	br	5082f58 <strerror+0x258>
 5083140:	00814374 	movhi	r2,1293
 5083144:	10ac1604 	addi	r2,r2,-20392
 5083148:	003f8306 	br	5082f58 <strerror+0x258>
 508314c:	00814374 	movhi	r2,1293
 5083150:	10ac1804 	addi	r2,r2,-20384
 5083154:	003f8006 	br	5082f58 <strerror+0x258>
 5083158:	00814374 	movhi	r2,1293
 508315c:	10ac1c04 	addi	r2,r2,-20368
 5083160:	003f7d06 	br	5082f58 <strerror+0x258>
 5083164:	00814374 	movhi	r2,1293
 5083168:	10ac2204 	addi	r2,r2,-20344
 508316c:	003f7a06 	br	5082f58 <strerror+0x258>
 5083170:	00814374 	movhi	r2,1293
 5083174:	10ac2704 	addi	r2,r2,-20324
 5083178:	003f7706 	br	5082f58 <strerror+0x258>
 508317c:	00814374 	movhi	r2,1293
 5083180:	10ac2f04 	addi	r2,r2,-20292
 5083184:	003f7406 	br	5082f58 <strerror+0x258>
 5083188:	00814374 	movhi	r2,1293
 508318c:	10ac3204 	addi	r2,r2,-20280
 5083190:	003f7106 	br	5082f58 <strerror+0x258>
 5083194:	00814374 	movhi	r2,1293
 5083198:	10ac3704 	addi	r2,r2,-20260
 508319c:	003f6e06 	br	5082f58 <strerror+0x258>
 50831a0:	00814374 	movhi	r2,1293
 50831a4:	10ac3d04 	addi	r2,r2,-20236
 50831a8:	003f6b06 	br	5082f58 <strerror+0x258>
 50831ac:	00814374 	movhi	r2,1293
 50831b0:	10ac4104 	addi	r2,r2,-20220
 50831b4:	003f6806 	br	5082f58 <strerror+0x258>
 50831b8:	00814374 	movhi	r2,1293
 50831bc:	10ac4504 	addi	r2,r2,-20204
 50831c0:	003f6506 	br	5082f58 <strerror+0x258>
 50831c4:	00814374 	movhi	r2,1293
 50831c8:	10ac4a04 	addi	r2,r2,-20184
 50831cc:	003f6206 	br	5082f58 <strerror+0x258>
 50831d0:	00814374 	movhi	r2,1293
 50831d4:	10ac5304 	addi	r2,r2,-20148
 50831d8:	003f5f06 	br	5082f58 <strerror+0x258>
 50831dc:	00814374 	movhi	r2,1293
 50831e0:	10ac5804 	addi	r2,r2,-20128
 50831e4:	003f5c06 	br	5082f58 <strerror+0x258>
 50831e8:	00814374 	movhi	r2,1293
 50831ec:	10ac5b04 	addi	r2,r2,-20116
 50831f0:	003f5906 	br	5082f58 <strerror+0x258>
 50831f4:	00814374 	movhi	r2,1293
 50831f8:	10ac6504 	addi	r2,r2,-20076
 50831fc:	003f5606 	br	5082f58 <strerror+0x258>
 5083200:	00814374 	movhi	r2,1293
 5083204:	10ac6f04 	addi	r2,r2,-20036
 5083208:	003f5306 	br	5082f58 <strerror+0x258>
 508320c:	00814374 	movhi	r2,1293
 5083210:	10ac7704 	addi	r2,r2,-20004
 5083214:	003f5006 	br	5082f58 <strerror+0x258>
 5083218:	00814374 	movhi	r2,1293
 508321c:	10ac8704 	addi	r2,r2,-19940
 5083220:	003f4d06 	br	5082f58 <strerror+0x258>
 5083224:	00814374 	movhi	r2,1293
 5083228:	10ac9104 	addi	r2,r2,-19900
 508322c:	003f4a06 	br	5082f58 <strerror+0x258>
 5083230:	00814374 	movhi	r2,1293
 5083234:	10ac9804 	addi	r2,r2,-19872
 5083238:	003f4706 	br	5082f58 <strerror+0x258>
 508323c:	00814374 	movhi	r2,1293
 5083240:	10ac9c04 	addi	r2,r2,-19856
 5083244:	003f4406 	br	5082f58 <strerror+0x258>
 5083248:	00814374 	movhi	r2,1293
 508324c:	10aca104 	addi	r2,r2,-19836
 5083250:	003f4106 	br	5082f58 <strerror+0x258>
 5083254:	00814374 	movhi	r2,1293
 5083258:	10aca804 	addi	r2,r2,-19808
 508325c:	003f3e06 	br	5082f58 <strerror+0x258>
 5083260:	00814374 	movhi	r2,1293
 5083264:	10ad0804 	addi	r2,r2,-19424
 5083268:	003f3b06 	br	5082f58 <strerror+0x258>
 508326c:	00814374 	movhi	r2,1293
 5083270:	10acae04 	addi	r2,r2,-19784
 5083274:	003f3806 	br	5082f58 <strerror+0x258>
 5083278:	00814374 	movhi	r2,1293
 508327c:	10acb504 	addi	r2,r2,-19756
 5083280:	003f3506 	br	5082f58 <strerror+0x258>
 5083284:	00814374 	movhi	r2,1293
 5083288:	10acc104 	addi	r2,r2,-19708
 508328c:	003f3206 	br	5082f58 <strerror+0x258>
 5083290:	00814374 	movhi	r2,1293
 5083294:	10acc904 	addi	r2,r2,-19676
 5083298:	003f2f06 	br	5082f58 <strerror+0x258>
 508329c:	00814374 	movhi	r2,1293
 50832a0:	10acd104 	addi	r2,r2,-19644
 50832a4:	003f2c06 	br	5082f58 <strerror+0x258>
 50832a8:	00814374 	movhi	r2,1293
 50832ac:	10acd704 	addi	r2,r2,-19620
 50832b0:	003f2906 	br	5082f58 <strerror+0x258>
 50832b4:	00814374 	movhi	r2,1293
 50832b8:	10ace004 	addi	r2,r2,-19584
 50832bc:	003f2606 	br	5082f58 <strerror+0x258>
 50832c0:	00814374 	movhi	r2,1293
 50832c4:	10ace504 	addi	r2,r2,-19564
 50832c8:	003f2306 	br	5082f58 <strerror+0x258>
 50832cc:	00814374 	movhi	r2,1293
 50832d0:	10aceb04 	addi	r2,r2,-19540
 50832d4:	003f2006 	br	5082f58 <strerror+0x258>
 50832d8:	00814374 	movhi	r2,1293
 50832dc:	10ac1004 	addi	r2,r2,-20416
 50832e0:	003f1d06 	br	5082f58 <strerror+0x258>
 50832e4:	00814374 	movhi	r2,1293
 50832e8:	10abb404 	addi	r2,r2,-20784
 50832ec:	003f1a06 	br	5082f58 <strerror+0x258>
 50832f0:	00814374 	movhi	r2,1293
 50832f4:	10ab2d04 	addi	r2,r2,-21324
 50832f8:	003f1706 	br	5082f58 <strerror+0x258>
 50832fc:	00814374 	movhi	r2,1293
 5083300:	10ab9f04 	addi	r2,r2,-20868
 5083304:	003f1406 	br	5082f58 <strerror+0x258>
 5083308:	00814374 	movhi	r2,1293
 508330c:	10abd804 	addi	r2,r2,-20640
 5083310:	003f1106 	br	5082f58 <strerror+0x258>
 5083314:	00814374 	movhi	r2,1293
 5083318:	10aba304 	addi	r2,r2,-20852
 508331c:	003f0e06 	br	5082f58 <strerror+0x258>
 5083320:	00814374 	movhi	r2,1293
 5083324:	10ab5b04 	addi	r2,r2,-21140
 5083328:	003f0b06 	br	5082f58 <strerror+0x258>
 508332c:	00814374 	movhi	r2,1293
 5083330:	10ab6904 	addi	r2,r2,-21084
 5083334:	003f0806 	br	5082f58 <strerror+0x258>
 5083338:	00814374 	movhi	r2,1293
 508333c:	10ab2804 	addi	r2,r2,-21344
 5083340:	003f0506 	br	5082f58 <strerror+0x258>
 5083344:	00814374 	movhi	r2,1293
 5083348:	10ac4e04 	addi	r2,r2,-20168
 508334c:	003f0206 	br	5082f58 <strerror+0x258>
 5083350:	00814374 	movhi	r2,1293
 5083354:	10acfa04 	addi	r2,r2,-19480
 5083358:	003eff06 	br	5082f58 <strerror+0x258>
 508335c:	00814374 	movhi	r2,1293
 5083360:	10ad0104 	addi	r2,r2,-19452
 5083364:	003efc06 	br	5082f58 <strerror+0x258>
 5083368:	00814374 	movhi	r2,1293
 508336c:	10acf404 	addi	r2,r2,-19504
 5083370:	003ef906 	br	5082f58 <strerror+0x258>

05083374 <strlen>:
 5083374:	208000cc 	andi	r2,r4,3
 5083378:	2011883a 	mov	r8,r4
 508337c:	1000161e 	bne	r2,zero,50833d8 <strlen+0x64>
 5083380:	20c00017 	ldw	r3,0(r4)
 5083384:	017fbff4 	movhi	r5,65279
 5083388:	297fbfc4 	addi	r5,r5,-257
 508338c:	01e02074 	movhi	r7,32897
 5083390:	39e02004 	addi	r7,r7,-32640
 5083394:	1945883a 	add	r2,r3,r5
 5083398:	11c4703a 	and	r2,r2,r7
 508339c:	00c6303a 	nor	r3,zero,r3
 50833a0:	1886703a 	and	r3,r3,r2
 50833a4:	18000c1e 	bne	r3,zero,50833d8 <strlen+0x64>
 50833a8:	280d883a 	mov	r6,r5
 50833ac:	380b883a 	mov	r5,r7
 50833b0:	21000104 	addi	r4,r4,4
 50833b4:	20800017 	ldw	r2,0(r4)
 50833b8:	1187883a 	add	r3,r2,r6
 50833bc:	1946703a 	and	r3,r3,r5
 50833c0:	0084303a 	nor	r2,zero,r2
 50833c4:	10c4703a 	and	r2,r2,r3
 50833c8:	103ff926 	beq	r2,zero,50833b0 <strlen+0x3c>
 50833cc:	20800007 	ldb	r2,0(r4)
 50833d0:	10000326 	beq	r2,zero,50833e0 <strlen+0x6c>
 50833d4:	21000044 	addi	r4,r4,1
 50833d8:	20800007 	ldb	r2,0(r4)
 50833dc:	103ffd1e 	bne	r2,zero,50833d4 <strlen+0x60>
 50833e0:	2205c83a 	sub	r2,r4,r8
 50833e4:	f800283a 	ret

050833e8 <_user_strerror>:
 50833e8:	0005883a 	mov	r2,zero
 50833ec:	f800283a 	ret

050833f0 <__sprint_r>:
 50833f0:	30800217 	ldw	r2,8(r6)
 50833f4:	defffe04 	addi	sp,sp,-8
 50833f8:	dc000015 	stw	r16,0(sp)
 50833fc:	dfc00115 	stw	ra,4(sp)
 5083400:	3021883a 	mov	r16,r6
 5083404:	0007883a 	mov	r3,zero
 5083408:	1000061e 	bne	r2,zero,5083424 <__sprint_r+0x34>
 508340c:	1805883a 	mov	r2,r3
 5083410:	30000115 	stw	zero,4(r6)
 5083414:	dfc00117 	ldw	ra,4(sp)
 5083418:	dc000017 	ldw	r16,0(sp)
 508341c:	dec00204 	addi	sp,sp,8
 5083420:	f800283a 	ret
 5083424:	50877e80 	call	50877e8 <__sfvwrite_r>
 5083428:	1007883a 	mov	r3,r2
 508342c:	1805883a 	mov	r2,r3
 5083430:	80000115 	stw	zero,4(r16)
 5083434:	80000215 	stw	zero,8(r16)
 5083438:	dfc00117 	ldw	ra,4(sp)
 508343c:	dc000017 	ldw	r16,0(sp)
 5083440:	dec00204 	addi	sp,sp,8
 5083444:	f800283a 	ret

05083448 <___vfprintf_internal_r>:
 5083448:	defea404 	addi	sp,sp,-1392
 508344c:	dd815815 	stw	r22,1376(sp)
 5083450:	dc015215 	stw	r16,1352(sp)
 5083454:	d9c15115 	stw	r7,1348(sp)
 5083458:	dfc15b15 	stw	ra,1388(sp)
 508345c:	df015a15 	stw	fp,1384(sp)
 5083460:	ddc15915 	stw	r23,1380(sp)
 5083464:	dd415715 	stw	r21,1372(sp)
 5083468:	dd015615 	stw	r20,1368(sp)
 508346c:	dcc15515 	stw	r19,1364(sp)
 5083470:	dc815415 	stw	r18,1360(sp)
 5083474:	dc415315 	stw	r17,1356(sp)
 5083478:	282d883a 	mov	r22,r5
 508347c:	3021883a 	mov	r16,r6
 5083480:	d9014f15 	stw	r4,1340(sp)
 5083484:	5087e0c0 	call	5087e0c <_localeconv_r>
 5083488:	10800017 	ldw	r2,0(r2)
 508348c:	d9c15117 	ldw	r7,1348(sp)
 5083490:	d8814915 	stw	r2,1316(sp)
 5083494:	d8814f17 	ldw	r2,1340(sp)
 5083498:	10000226 	beq	r2,zero,50834a4 <___vfprintf_internal_r+0x5c>
 508349c:	10800e17 	ldw	r2,56(r2)
 50834a0:	10020d26 	beq	r2,zero,5083cd8 <___vfprintf_internal_r+0x890>
 50834a4:	b080030b 	ldhu	r2,12(r22)
 50834a8:	1080020c 	andi	r2,r2,8
 50834ac:	10020e26 	beq	r2,zero,5083ce8 <___vfprintf_internal_r+0x8a0>
 50834b0:	b0800417 	ldw	r2,16(r22)
 50834b4:	10020c26 	beq	r2,zero,5083ce8 <___vfprintf_internal_r+0x8a0>
 50834b8:	b200030b 	ldhu	r8,12(r22)
 50834bc:	00800284 	movi	r2,10
 50834c0:	40c0068c 	andi	r3,r8,26
 50834c4:	18802f1e 	bne	r3,r2,5083584 <___vfprintf_internal_r+0x13c>
 50834c8:	b080038f 	ldh	r2,14(r22)
 50834cc:	10002d16 	blt	r2,zero,5083584 <___vfprintf_internal_r+0x13c>
 50834d0:	b240038b 	ldhu	r9,14(r22)
 50834d4:	b2800717 	ldw	r10,28(r22)
 50834d8:	b2c00917 	ldw	r11,36(r22)
 50834dc:	d9014f17 	ldw	r4,1340(sp)
 50834e0:	dc402904 	addi	r17,sp,164
 50834e4:	d8804004 	addi	r2,sp,256
 50834e8:	00c10004 	movi	r3,1024
 50834ec:	423fff4c 	andi	r8,r8,65533
 50834f0:	800d883a 	mov	r6,r16
 50834f4:	880b883a 	mov	r5,r17
 50834f8:	da002c0d 	sth	r8,176(sp)
 50834fc:	da402c8d 	sth	r9,178(sp)
 5083500:	da803015 	stw	r10,192(sp)
 5083504:	dac03215 	stw	r11,200(sp)
 5083508:	d8802d15 	stw	r2,180(sp)
 508350c:	d8c02e15 	stw	r3,184(sp)
 5083510:	d8802915 	stw	r2,164(sp)
 5083514:	d8c02b15 	stw	r3,172(sp)
 5083518:	d8002f15 	stw	zero,188(sp)
 508351c:	50834480 	call	5083448 <___vfprintf_internal_r>
 5083520:	d8814b15 	stw	r2,1324(sp)
 5083524:	10000416 	blt	r2,zero,5083538 <___vfprintf_internal_r+0xf0>
 5083528:	d9014f17 	ldw	r4,1340(sp)
 508352c:	880b883a 	mov	r5,r17
 5083530:	5086d6c0 	call	5086d6c <_fflush_r>
 5083534:	1002321e 	bne	r2,zero,5083e00 <___vfprintf_internal_r+0x9b8>
 5083538:	d8802c0b 	ldhu	r2,176(sp)
 508353c:	1080100c 	andi	r2,r2,64
 5083540:	10000326 	beq	r2,zero,5083550 <___vfprintf_internal_r+0x108>
 5083544:	b080030b 	ldhu	r2,12(r22)
 5083548:	10801014 	ori	r2,r2,64
 508354c:	b080030d 	sth	r2,12(r22)
 5083550:	d8814b17 	ldw	r2,1324(sp)
 5083554:	dfc15b17 	ldw	ra,1388(sp)
 5083558:	df015a17 	ldw	fp,1384(sp)
 508355c:	ddc15917 	ldw	r23,1380(sp)
 5083560:	dd815817 	ldw	r22,1376(sp)
 5083564:	dd415717 	ldw	r21,1372(sp)
 5083568:	dd015617 	ldw	r20,1368(sp)
 508356c:	dcc15517 	ldw	r19,1364(sp)
 5083570:	dc815417 	ldw	r18,1360(sp)
 5083574:	dc415317 	ldw	r17,1356(sp)
 5083578:	dc015217 	ldw	r16,1352(sp)
 508357c:	dec15c04 	addi	sp,sp,1392
 5083580:	f800283a 	ret
 5083584:	0005883a 	mov	r2,zero
 5083588:	0007883a 	mov	r3,zero
 508358c:	dd401904 	addi	r21,sp,100
 5083590:	d8814215 	stw	r2,1288(sp)
 5083594:	802f883a 	mov	r23,r16
 5083598:	d8c14315 	stw	r3,1292(sp)
 508359c:	d8014b15 	stw	zero,1324(sp)
 50835a0:	d8014815 	stw	zero,1312(sp)
 50835a4:	d8014415 	stw	zero,1296(sp)
 50835a8:	d8014715 	stw	zero,1308(sp)
 50835ac:	dd400c15 	stw	r21,48(sp)
 50835b0:	d8000e15 	stw	zero,56(sp)
 50835b4:	d8000d15 	stw	zero,52(sp)
 50835b8:	b8800007 	ldb	r2,0(r23)
 50835bc:	10001926 	beq	r2,zero,5083624 <___vfprintf_internal_r+0x1dc>
 50835c0:	00c00944 	movi	r3,37
 50835c4:	10c01726 	beq	r2,r3,5083624 <___vfprintf_internal_r+0x1dc>
 50835c8:	b821883a 	mov	r16,r23
 50835cc:	00000106 	br	50835d4 <___vfprintf_internal_r+0x18c>
 50835d0:	10c00326 	beq	r2,r3,50835e0 <___vfprintf_internal_r+0x198>
 50835d4:	84000044 	addi	r16,r16,1
 50835d8:	80800007 	ldb	r2,0(r16)
 50835dc:	103ffc1e 	bne	r2,zero,50835d0 <___vfprintf_internal_r+0x188>
 50835e0:	85e7c83a 	sub	r19,r16,r23
 50835e4:	98000e26 	beq	r19,zero,5083620 <___vfprintf_internal_r+0x1d8>
 50835e8:	dc800e17 	ldw	r18,56(sp)
 50835ec:	dc400d17 	ldw	r17,52(sp)
 50835f0:	008001c4 	movi	r2,7
 50835f4:	94e5883a 	add	r18,r18,r19
 50835f8:	8c400044 	addi	r17,r17,1
 50835fc:	adc00015 	stw	r23,0(r21)
 5083600:	dc800e15 	stw	r18,56(sp)
 5083604:	acc00115 	stw	r19,4(r21)
 5083608:	dc400d15 	stw	r17,52(sp)
 508360c:	14428b16 	blt	r2,r17,508403c <___vfprintf_internal_r+0xbf4>
 5083610:	ad400204 	addi	r21,r21,8
 5083614:	d9014b17 	ldw	r4,1324(sp)
 5083618:	24c9883a 	add	r4,r4,r19
 508361c:	d9014b15 	stw	r4,1324(sp)
 5083620:	802f883a 	mov	r23,r16
 5083624:	b8800007 	ldb	r2,0(r23)
 5083628:	10013c26 	beq	r2,zero,5083b1c <___vfprintf_internal_r+0x6d4>
 508362c:	bdc00044 	addi	r23,r23,1
 5083630:	d8000405 	stb	zero,16(sp)
 5083634:	b8c00007 	ldb	r3,0(r23)
 5083638:	04ffffc4 	movi	r19,-1
 508363c:	d8014c15 	stw	zero,1328(sp)
 5083640:	d8014a15 	stw	zero,1320(sp)
 5083644:	d8c14d15 	stw	r3,1332(sp)
 5083648:	bdc00044 	addi	r23,r23,1
 508364c:	d9414d17 	ldw	r5,1332(sp)
 5083650:	00801604 	movi	r2,88
 5083654:	28fff804 	addi	r3,r5,-32
 5083658:	10c06036 	bltu	r2,r3,50837dc <___vfprintf_internal_r+0x394>
 508365c:	18c5883a 	add	r2,r3,r3
 5083660:	1085883a 	add	r2,r2,r2
 5083664:	00c14234 	movhi	r3,1288
 5083668:	18cd9e04 	addi	r3,r3,13944
 508366c:	10c5883a 	add	r2,r2,r3
 5083670:	11000017 	ldw	r4,0(r2)
 5083674:	2000683a 	jmp	r4
 5083678:	050845ec 	andhi	r20,zero,8471
 508367c:	050837dc 	xori	r20,zero,8415
 5083680:	050837dc 	xori	r20,zero,8415
 5083684:	050845d8 	cmpnei	r20,zero,8471
 5083688:	050837dc 	xori	r20,zero,8415
 508368c:	050837dc 	xori	r20,zero,8415
 5083690:	050837dc 	xori	r20,zero,8415
 5083694:	050837dc 	xori	r20,zero,8415
 5083698:	050837dc 	xori	r20,zero,8415
 508369c:	050837dc 	xori	r20,zero,8415
 50836a0:	050843b8 	rdprs	r20,zero,8462
 50836a4:	050845c8 	cmpgei	r20,zero,8471
 50836a8:	050837dc 	xori	r20,zero,8415
 50836ac:	050843d0 	cmplti	r20,zero,8463
 50836b0:	05084664 	muli	r20,zero,8473
 50836b4:	050837dc 	xori	r20,zero,8415
 50836b8:	05084650 	cmplti	r20,zero,8473
 50836bc:	05084618 	cmpnei	r20,zero,8472
 50836c0:	05084618 	cmpnei	r20,zero,8472
 50836c4:	05084618 	cmpnei	r20,zero,8472
 50836c8:	05084618 	cmpnei	r20,zero,8472
 50836cc:	05084618 	cmpnei	r20,zero,8472
 50836d0:	05084618 	cmpnei	r20,zero,8472
 50836d4:	05084618 	cmpnei	r20,zero,8472
 50836d8:	05084618 	cmpnei	r20,zero,8472
 50836dc:	05084618 	cmpnei	r20,zero,8472
 50836e0:	050837dc 	xori	r20,zero,8415
 50836e4:	050837dc 	xori	r20,zero,8415
 50836e8:	050837dc 	xori	r20,zero,8415
 50836ec:	050837dc 	xori	r20,zero,8415
 50836f0:	050837dc 	xori	r20,zero,8415
 50836f4:	050837dc 	xori	r20,zero,8415
 50836f8:	050837dc 	xori	r20,zero,8415
 50836fc:	050837dc 	xori	r20,zero,8415
 5083700:	050837dc 	xori	r20,zero,8415
 5083704:	050837dc 	xori	r20,zero,8415
 5083708:	05083e34 	movhi	r20,8440
 508370c:	050844a0 	cmpeqi	r20,zero,8466
 5083710:	050837dc 	xori	r20,zero,8415
 5083714:	050844a0 	cmpeqi	r20,zero,8466
 5083718:	050837dc 	xori	r20,zero,8415
 508371c:	050837dc 	xori	r20,zero,8415
 5083720:	050837dc 	xori	r20,zero,8415
 5083724:	050837dc 	xori	r20,zero,8415
 5083728:	05084604 	movi	r20,8472
 508372c:	050837dc 	xori	r20,zero,8415
 5083730:	050837dc 	xori	r20,zero,8415
 5083734:	05083ee8 	cmpgeui	r20,zero,8443
 5083738:	050837dc 	xori	r20,zero,8415
 508373c:	050837dc 	xori	r20,zero,8415
 5083740:	050837dc 	xori	r20,zero,8415
 5083744:	050837dc 	xori	r20,zero,8415
 5083748:	050837dc 	xori	r20,zero,8415
 508374c:	05083f34 	movhi	r20,8444
 5083750:	050837dc 	xori	r20,zero,8415
 5083754:	050837dc 	xori	r20,zero,8415
 5083758:	05084554 	movui	r20,8469
 508375c:	050837dc 	xori	r20,zero,8415
 5083760:	050837dc 	xori	r20,zero,8415
 5083764:	050837dc 	xori	r20,zero,8415
 5083768:	050837dc 	xori	r20,zero,8415
 508376c:	050837dc 	xori	r20,zero,8415
 5083770:	050837dc 	xori	r20,zero,8415
 5083774:	050837dc 	xori	r20,zero,8415
 5083778:	050837dc 	xori	r20,zero,8415
 508377c:	050837dc 	xori	r20,zero,8415
 5083780:	050837dc 	xori	r20,zero,8415
 5083784:	05084528 	cmpgeui	r20,zero,8468
 5083788:	05083e40 	call	5083e4 <OSCtxSw_SWITCH_PC+0x5083a4>
 508378c:	050844a0 	cmpeqi	r20,zero,8466
 5083790:	050844a0 	cmpeqi	r20,zero,8466
 5083794:	050844a0 	cmpeqi	r20,zero,8466
 5083798:	0508448c 	andi	r20,zero,8466
 508379c:	05083e40 	call	5083e4 <OSCtxSw_SWITCH_PC+0x5083a4>
 50837a0:	050837dc 	xori	r20,zero,8415
 50837a4:	050837dc 	xori	r20,zero,8415
 50837a8:	05084414 	movui	r20,8464
 50837ac:	050837dc 	xori	r20,zero,8415
 50837b0:	050843e4 	muli	r20,zero,8463
 50837b4:	05083ef4 	movhi	r20,8443
 50837b8:	05084444 	movi	r20,8465
 50837bc:	05084430 	cmpltui	r20,zero,8464
 50837c0:	050837dc 	xori	r20,zero,8415
 50837c4:	050846c0 	call	50846c <OSCtxSw_SWITCH_PC+0x50842c>
 50837c8:	050837dc 	xori	r20,zero,8415
 50837cc:	05083f40 	call	5083f4 <OSCtxSw_SWITCH_PC+0x5083b4>
 50837d0:	050837dc 	xori	r20,zero,8415
 50837d4:	050837dc 	xori	r20,zero,8415
 50837d8:	050845b8 	rdprs	r20,zero,8470
 50837dc:	d9014d17 	ldw	r4,1332(sp)
 50837e0:	2000ce26 	beq	r4,zero,5083b1c <___vfprintf_internal_r+0x6d4>
 50837e4:	01400044 	movi	r5,1
 50837e8:	d9800f04 	addi	r6,sp,60
 50837ec:	d9c14015 	stw	r7,1280(sp)
 50837f0:	d9414515 	stw	r5,1300(sp)
 50837f4:	d9814115 	stw	r6,1284(sp)
 50837f8:	280f883a 	mov	r7,r5
 50837fc:	d9000f05 	stb	r4,60(sp)
 5083800:	d8000405 	stb	zero,16(sp)
 5083804:	d8014615 	stw	zero,1304(sp)
 5083808:	d8c14c17 	ldw	r3,1328(sp)
 508380c:	1880008c 	andi	r2,r3,2
 5083810:	1005003a 	cmpeq	r2,r2,zero
 5083814:	d8815015 	stw	r2,1344(sp)
 5083818:	1000031e 	bne	r2,zero,5083828 <___vfprintf_internal_r+0x3e0>
 508381c:	d9014517 	ldw	r4,1300(sp)
 5083820:	21000084 	addi	r4,r4,2
 5083824:	d9014515 	stw	r4,1300(sp)
 5083828:	d9414c17 	ldw	r5,1328(sp)
 508382c:	2940210c 	andi	r5,r5,132
 5083830:	d9414e15 	stw	r5,1336(sp)
 5083834:	28002d1e 	bne	r5,zero,50838ec <___vfprintf_internal_r+0x4a4>
 5083838:	d9814a17 	ldw	r6,1320(sp)
 508383c:	d8814517 	ldw	r2,1300(sp)
 5083840:	30a1c83a 	sub	r16,r6,r2
 5083844:	0400290e 	bge	zero,r16,50838ec <___vfprintf_internal_r+0x4a4>
 5083848:	00800404 	movi	r2,16
 508384c:	1404580e 	bge	r2,r16,50849b0 <___vfprintf_internal_r+0x1568>
 5083850:	dc800e17 	ldw	r18,56(sp)
 5083854:	dc400d17 	ldw	r17,52(sp)
 5083858:	1027883a 	mov	r19,r2
 508385c:	07014374 	movhi	fp,1293
 5083860:	e72d2c84 	addi	fp,fp,-19278
 5083864:	050001c4 	movi	r20,7
 5083868:	00000306 	br	5083878 <___vfprintf_internal_r+0x430>
 508386c:	843ffc04 	addi	r16,r16,-16
 5083870:	ad400204 	addi	r21,r21,8
 5083874:	9c00130e 	bge	r19,r16,50838c4 <___vfprintf_internal_r+0x47c>
 5083878:	94800404 	addi	r18,r18,16
 508387c:	8c400044 	addi	r17,r17,1
 5083880:	af000015 	stw	fp,0(r21)
 5083884:	acc00115 	stw	r19,4(r21)
 5083888:	dc800e15 	stw	r18,56(sp)
 508388c:	dc400d15 	stw	r17,52(sp)
 5083890:	a47ff60e 	bge	r20,r17,508386c <___vfprintf_internal_r+0x424>
 5083894:	d9014f17 	ldw	r4,1340(sp)
 5083898:	b00b883a 	mov	r5,r22
 508389c:	d9800c04 	addi	r6,sp,48
 50838a0:	d9c15115 	stw	r7,1348(sp)
 50838a4:	50833f00 	call	50833f0 <__sprint_r>
 50838a8:	d9c15117 	ldw	r7,1348(sp)
 50838ac:	10009e1e 	bne	r2,zero,5083b28 <___vfprintf_internal_r+0x6e0>
 50838b0:	843ffc04 	addi	r16,r16,-16
 50838b4:	dc800e17 	ldw	r18,56(sp)
 50838b8:	dc400d17 	ldw	r17,52(sp)
 50838bc:	dd401904 	addi	r21,sp,100
 50838c0:	9c3fed16 	blt	r19,r16,5083878 <___vfprintf_internal_r+0x430>
 50838c4:	9425883a 	add	r18,r18,r16
 50838c8:	8c400044 	addi	r17,r17,1
 50838cc:	008001c4 	movi	r2,7
 50838d0:	af000015 	stw	fp,0(r21)
 50838d4:	ac000115 	stw	r16,4(r21)
 50838d8:	dc800e15 	stw	r18,56(sp)
 50838dc:	dc400d15 	stw	r17,52(sp)
 50838e0:	1441f516 	blt	r2,r17,50840b8 <___vfprintf_internal_r+0xc70>
 50838e4:	ad400204 	addi	r21,r21,8
 50838e8:	00000206 	br	50838f4 <___vfprintf_internal_r+0x4ac>
 50838ec:	dc800e17 	ldw	r18,56(sp)
 50838f0:	dc400d17 	ldw	r17,52(sp)
 50838f4:	d8800407 	ldb	r2,16(sp)
 50838f8:	10000b26 	beq	r2,zero,5083928 <___vfprintf_internal_r+0x4e0>
 50838fc:	00800044 	movi	r2,1
 5083900:	94800044 	addi	r18,r18,1
 5083904:	8c400044 	addi	r17,r17,1
 5083908:	a8800115 	stw	r2,4(r21)
 508390c:	d8c00404 	addi	r3,sp,16
 5083910:	008001c4 	movi	r2,7
 5083914:	a8c00015 	stw	r3,0(r21)
 5083918:	dc800e15 	stw	r18,56(sp)
 508391c:	dc400d15 	stw	r17,52(sp)
 5083920:	1441da16 	blt	r2,r17,508408c <___vfprintf_internal_r+0xc44>
 5083924:	ad400204 	addi	r21,r21,8
 5083928:	d9015017 	ldw	r4,1344(sp)
 508392c:	20000b1e 	bne	r4,zero,508395c <___vfprintf_internal_r+0x514>
 5083930:	d8800444 	addi	r2,sp,17
 5083934:	94800084 	addi	r18,r18,2
 5083938:	8c400044 	addi	r17,r17,1
 508393c:	a8800015 	stw	r2,0(r21)
 5083940:	00c00084 	movi	r3,2
 5083944:	008001c4 	movi	r2,7
 5083948:	a8c00115 	stw	r3,4(r21)
 508394c:	dc800e15 	stw	r18,56(sp)
 5083950:	dc400d15 	stw	r17,52(sp)
 5083954:	1441c216 	blt	r2,r17,5084060 <___vfprintf_internal_r+0xc18>
 5083958:	ad400204 	addi	r21,r21,8
 508395c:	d9414e17 	ldw	r5,1336(sp)
 5083960:	00802004 	movi	r2,128
 5083964:	2880b126 	beq	r5,r2,5083c2c <___vfprintf_internal_r+0x7e4>
 5083968:	d8c14617 	ldw	r3,1304(sp)
 508396c:	19e1c83a 	sub	r16,r3,r7
 5083970:	0400260e 	bge	zero,r16,5083a0c <___vfprintf_internal_r+0x5c4>
 5083974:	00800404 	movi	r2,16
 5083978:	1403c90e 	bge	r2,r16,50848a0 <___vfprintf_internal_r+0x1458>
 508397c:	1027883a 	mov	r19,r2
 5083980:	07014374 	movhi	fp,1293
 5083984:	e72d2884 	addi	fp,fp,-19294
 5083988:	050001c4 	movi	r20,7
 508398c:	00000306 	br	508399c <___vfprintf_internal_r+0x554>
 5083990:	843ffc04 	addi	r16,r16,-16
 5083994:	ad400204 	addi	r21,r21,8
 5083998:	9c00130e 	bge	r19,r16,50839e8 <___vfprintf_internal_r+0x5a0>
 508399c:	94800404 	addi	r18,r18,16
 50839a0:	8c400044 	addi	r17,r17,1
 50839a4:	af000015 	stw	fp,0(r21)
 50839a8:	acc00115 	stw	r19,4(r21)
 50839ac:	dc800e15 	stw	r18,56(sp)
 50839b0:	dc400d15 	stw	r17,52(sp)
 50839b4:	a47ff60e 	bge	r20,r17,5083990 <___vfprintf_internal_r+0x548>
 50839b8:	d9014f17 	ldw	r4,1340(sp)
 50839bc:	b00b883a 	mov	r5,r22
 50839c0:	d9800c04 	addi	r6,sp,48
 50839c4:	d9c15115 	stw	r7,1348(sp)
 50839c8:	50833f00 	call	50833f0 <__sprint_r>
 50839cc:	d9c15117 	ldw	r7,1348(sp)
 50839d0:	1000551e 	bne	r2,zero,5083b28 <___vfprintf_internal_r+0x6e0>
 50839d4:	843ffc04 	addi	r16,r16,-16
 50839d8:	dc800e17 	ldw	r18,56(sp)
 50839dc:	dc400d17 	ldw	r17,52(sp)
 50839e0:	dd401904 	addi	r21,sp,100
 50839e4:	9c3fed16 	blt	r19,r16,508399c <___vfprintf_internal_r+0x554>
 50839e8:	9425883a 	add	r18,r18,r16
 50839ec:	8c400044 	addi	r17,r17,1
 50839f0:	008001c4 	movi	r2,7
 50839f4:	af000015 	stw	fp,0(r21)
 50839f8:	ac000115 	stw	r16,4(r21)
 50839fc:	dc800e15 	stw	r18,56(sp)
 5083a00:	dc400d15 	stw	r17,52(sp)
 5083a04:	14418216 	blt	r2,r17,5084010 <___vfprintf_internal_r+0xbc8>
 5083a08:	ad400204 	addi	r21,r21,8
 5083a0c:	d9014c17 	ldw	r4,1328(sp)
 5083a10:	2080400c 	andi	r2,r4,256
 5083a14:	10004a1e 	bne	r2,zero,5083b40 <___vfprintf_internal_r+0x6f8>
 5083a18:	d9414117 	ldw	r5,1284(sp)
 5083a1c:	91e5883a 	add	r18,r18,r7
 5083a20:	8c400044 	addi	r17,r17,1
 5083a24:	008001c4 	movi	r2,7
 5083a28:	a9400015 	stw	r5,0(r21)
 5083a2c:	a9c00115 	stw	r7,4(r21)
 5083a30:	dc800e15 	stw	r18,56(sp)
 5083a34:	dc400d15 	stw	r17,52(sp)
 5083a38:	14416716 	blt	r2,r17,5083fd8 <___vfprintf_internal_r+0xb90>
 5083a3c:	a8c00204 	addi	r3,r21,8
 5083a40:	d9814c17 	ldw	r6,1328(sp)
 5083a44:	3080010c 	andi	r2,r6,4
 5083a48:	10002826 	beq	r2,zero,5083aec <___vfprintf_internal_r+0x6a4>
 5083a4c:	d8814a17 	ldw	r2,1320(sp)
 5083a50:	d9014517 	ldw	r4,1300(sp)
 5083a54:	1121c83a 	sub	r16,r2,r4
 5083a58:	0400240e 	bge	zero,r16,5083aec <___vfprintf_internal_r+0x6a4>
 5083a5c:	00800404 	movi	r2,16
 5083a60:	14044f0e 	bge	r2,r16,5084ba0 <___vfprintf_internal_r+0x1758>
 5083a64:	dc400d17 	ldw	r17,52(sp)
 5083a68:	1027883a 	mov	r19,r2
 5083a6c:	07014374 	movhi	fp,1293
 5083a70:	e72d2c84 	addi	fp,fp,-19278
 5083a74:	050001c4 	movi	r20,7
 5083a78:	00000306 	br	5083a88 <___vfprintf_internal_r+0x640>
 5083a7c:	843ffc04 	addi	r16,r16,-16
 5083a80:	18c00204 	addi	r3,r3,8
 5083a84:	9c00110e 	bge	r19,r16,5083acc <___vfprintf_internal_r+0x684>
 5083a88:	94800404 	addi	r18,r18,16
 5083a8c:	8c400044 	addi	r17,r17,1
 5083a90:	1f000015 	stw	fp,0(r3)
 5083a94:	1cc00115 	stw	r19,4(r3)
 5083a98:	dc800e15 	stw	r18,56(sp)
 5083a9c:	dc400d15 	stw	r17,52(sp)
 5083aa0:	a47ff60e 	bge	r20,r17,5083a7c <___vfprintf_internal_r+0x634>
 5083aa4:	d9014f17 	ldw	r4,1340(sp)
 5083aa8:	b00b883a 	mov	r5,r22
 5083aac:	d9800c04 	addi	r6,sp,48
 5083ab0:	50833f00 	call	50833f0 <__sprint_r>
 5083ab4:	10001c1e 	bne	r2,zero,5083b28 <___vfprintf_internal_r+0x6e0>
 5083ab8:	843ffc04 	addi	r16,r16,-16
 5083abc:	dc800e17 	ldw	r18,56(sp)
 5083ac0:	dc400d17 	ldw	r17,52(sp)
 5083ac4:	d8c01904 	addi	r3,sp,100
 5083ac8:	9c3fef16 	blt	r19,r16,5083a88 <___vfprintf_internal_r+0x640>
 5083acc:	9425883a 	add	r18,r18,r16
 5083ad0:	8c400044 	addi	r17,r17,1
 5083ad4:	008001c4 	movi	r2,7
 5083ad8:	1f000015 	stw	fp,0(r3)
 5083adc:	1c000115 	stw	r16,4(r3)
 5083ae0:	dc800e15 	stw	r18,56(sp)
 5083ae4:	dc400d15 	stw	r17,52(sp)
 5083ae8:	1440cb16 	blt	r2,r17,5083e18 <___vfprintf_internal_r+0x9d0>
 5083aec:	d8814a17 	ldw	r2,1320(sp)
 5083af0:	d9414517 	ldw	r5,1300(sp)
 5083af4:	1140010e 	bge	r2,r5,5083afc <___vfprintf_internal_r+0x6b4>
 5083af8:	2805883a 	mov	r2,r5
 5083afc:	d9814b17 	ldw	r6,1324(sp)
 5083b00:	308d883a 	add	r6,r6,r2
 5083b04:	d9814b15 	stw	r6,1324(sp)
 5083b08:	90013b1e 	bne	r18,zero,5083ff8 <___vfprintf_internal_r+0xbb0>
 5083b0c:	d9c14017 	ldw	r7,1280(sp)
 5083b10:	dd401904 	addi	r21,sp,100
 5083b14:	d8000d15 	stw	zero,52(sp)
 5083b18:	003ea706 	br	50835b8 <___vfprintf_internal_r+0x170>
 5083b1c:	d8800e17 	ldw	r2,56(sp)
 5083b20:	10053f1e 	bne	r2,zero,5085020 <___vfprintf_internal_r+0x1bd8>
 5083b24:	d8000d15 	stw	zero,52(sp)
 5083b28:	b080030b 	ldhu	r2,12(r22)
 5083b2c:	1080100c 	andi	r2,r2,64
 5083b30:	103e8726 	beq	r2,zero,5083550 <___vfprintf_internal_r+0x108>
 5083b34:	00bfffc4 	movi	r2,-1
 5083b38:	d8814b15 	stw	r2,1324(sp)
 5083b3c:	003e8406 	br	5083550 <___vfprintf_internal_r+0x108>
 5083b40:	d9814d17 	ldw	r6,1332(sp)
 5083b44:	00801944 	movi	r2,101
 5083b48:	11806e16 	blt	r2,r6,5083d04 <___vfprintf_internal_r+0x8bc>
 5083b4c:	d9414717 	ldw	r5,1308(sp)
 5083b50:	00c00044 	movi	r3,1
 5083b54:	1943430e 	bge	r3,r5,5084864 <___vfprintf_internal_r+0x141c>
 5083b58:	d8814117 	ldw	r2,1284(sp)
 5083b5c:	94800044 	addi	r18,r18,1
 5083b60:	8c400044 	addi	r17,r17,1
 5083b64:	a8800015 	stw	r2,0(r21)
 5083b68:	008001c4 	movi	r2,7
 5083b6c:	a8c00115 	stw	r3,4(r21)
 5083b70:	dc800e15 	stw	r18,56(sp)
 5083b74:	dc400d15 	stw	r17,52(sp)
 5083b78:	1441ca16 	blt	r2,r17,50842a4 <___vfprintf_internal_r+0xe5c>
 5083b7c:	a8c00204 	addi	r3,r21,8
 5083b80:	d9014917 	ldw	r4,1316(sp)
 5083b84:	00800044 	movi	r2,1
 5083b88:	94800044 	addi	r18,r18,1
 5083b8c:	8c400044 	addi	r17,r17,1
 5083b90:	18800115 	stw	r2,4(r3)
 5083b94:	008001c4 	movi	r2,7
 5083b98:	19000015 	stw	r4,0(r3)
 5083b9c:	dc800e15 	stw	r18,56(sp)
 5083ba0:	dc400d15 	stw	r17,52(sp)
 5083ba4:	1441b616 	blt	r2,r17,5084280 <___vfprintf_internal_r+0xe38>
 5083ba8:	1cc00204 	addi	r19,r3,8
 5083bac:	d9014217 	ldw	r4,1288(sp)
 5083bb0:	d9414317 	ldw	r5,1292(sp)
 5083bb4:	000d883a 	mov	r6,zero
 5083bb8:	000f883a 	mov	r7,zero
 5083bbc:	508bee80 	call	508bee8 <__nedf2>
 5083bc0:	10017426 	beq	r2,zero,5084194 <___vfprintf_internal_r+0xd4c>
 5083bc4:	d9414717 	ldw	r5,1308(sp)
 5083bc8:	d9814117 	ldw	r6,1284(sp)
 5083bcc:	8c400044 	addi	r17,r17,1
 5083bd0:	2c85883a 	add	r2,r5,r18
 5083bd4:	14bfffc4 	addi	r18,r2,-1
 5083bd8:	28bfffc4 	addi	r2,r5,-1
 5083bdc:	30c00044 	addi	r3,r6,1
 5083be0:	98800115 	stw	r2,4(r19)
 5083be4:	008001c4 	movi	r2,7
 5083be8:	98c00015 	stw	r3,0(r19)
 5083bec:	dc800e15 	stw	r18,56(sp)
 5083bf0:	dc400d15 	stw	r17,52(sp)
 5083bf4:	14418e16 	blt	r2,r17,5084230 <___vfprintf_internal_r+0xde8>
 5083bf8:	9cc00204 	addi	r19,r19,8
 5083bfc:	d9414817 	ldw	r5,1312(sp)
 5083c00:	d8800804 	addi	r2,sp,32
 5083c04:	8c400044 	addi	r17,r17,1
 5083c08:	9165883a 	add	r18,r18,r5
 5083c0c:	98800015 	stw	r2,0(r19)
 5083c10:	008001c4 	movi	r2,7
 5083c14:	99400115 	stw	r5,4(r19)
 5083c18:	dc800e15 	stw	r18,56(sp)
 5083c1c:	dc400d15 	stw	r17,52(sp)
 5083c20:	1440ed16 	blt	r2,r17,5083fd8 <___vfprintf_internal_r+0xb90>
 5083c24:	98c00204 	addi	r3,r19,8
 5083c28:	003f8506 	br	5083a40 <___vfprintf_internal_r+0x5f8>
 5083c2c:	d9814a17 	ldw	r6,1320(sp)
 5083c30:	d8814517 	ldw	r2,1300(sp)
 5083c34:	30a1c83a 	sub	r16,r6,r2
 5083c38:	043f4b0e 	bge	zero,r16,5083968 <___vfprintf_internal_r+0x520>
 5083c3c:	00800404 	movi	r2,16
 5083c40:	1404340e 	bge	r2,r16,5084d14 <___vfprintf_internal_r+0x18cc>
 5083c44:	1027883a 	mov	r19,r2
 5083c48:	07014374 	movhi	fp,1293
 5083c4c:	e72d2884 	addi	fp,fp,-19294
 5083c50:	050001c4 	movi	r20,7
 5083c54:	00000306 	br	5083c64 <___vfprintf_internal_r+0x81c>
 5083c58:	843ffc04 	addi	r16,r16,-16
 5083c5c:	ad400204 	addi	r21,r21,8
 5083c60:	9c00130e 	bge	r19,r16,5083cb0 <___vfprintf_internal_r+0x868>
 5083c64:	94800404 	addi	r18,r18,16
 5083c68:	8c400044 	addi	r17,r17,1
 5083c6c:	af000015 	stw	fp,0(r21)
 5083c70:	acc00115 	stw	r19,4(r21)
 5083c74:	dc800e15 	stw	r18,56(sp)
 5083c78:	dc400d15 	stw	r17,52(sp)
 5083c7c:	a47ff60e 	bge	r20,r17,5083c58 <___vfprintf_internal_r+0x810>
 5083c80:	d9014f17 	ldw	r4,1340(sp)
 5083c84:	b00b883a 	mov	r5,r22
 5083c88:	d9800c04 	addi	r6,sp,48
 5083c8c:	d9c15115 	stw	r7,1348(sp)
 5083c90:	50833f00 	call	50833f0 <__sprint_r>
 5083c94:	d9c15117 	ldw	r7,1348(sp)
 5083c98:	103fa31e 	bne	r2,zero,5083b28 <___vfprintf_internal_r+0x6e0>
 5083c9c:	843ffc04 	addi	r16,r16,-16
 5083ca0:	dc800e17 	ldw	r18,56(sp)
 5083ca4:	dc400d17 	ldw	r17,52(sp)
 5083ca8:	dd401904 	addi	r21,sp,100
 5083cac:	9c3fed16 	blt	r19,r16,5083c64 <___vfprintf_internal_r+0x81c>
 5083cb0:	9425883a 	add	r18,r18,r16
 5083cb4:	8c400044 	addi	r17,r17,1
 5083cb8:	008001c4 	movi	r2,7
 5083cbc:	af000015 	stw	fp,0(r21)
 5083cc0:	ac000115 	stw	r16,4(r21)
 5083cc4:	dc800e15 	stw	r18,56(sp)
 5083cc8:	dc400d15 	stw	r17,52(sp)
 5083ccc:	14416116 	blt	r2,r17,5084254 <___vfprintf_internal_r+0xe0c>
 5083cd0:	ad400204 	addi	r21,r21,8
 5083cd4:	003f2406 	br	5083968 <___vfprintf_internal_r+0x520>
 5083cd8:	d9014f17 	ldw	r4,1340(sp)
 5083cdc:	50870040 	call	5087004 <__sinit>
 5083ce0:	d9c15117 	ldw	r7,1348(sp)
 5083ce4:	003def06 	br	50834a4 <___vfprintf_internal_r+0x5c>
 5083ce8:	d9014f17 	ldw	r4,1340(sp)
 5083cec:	b00b883a 	mov	r5,r22
 5083cf0:	d9c15115 	stw	r7,1348(sp)
 5083cf4:	50854640 	call	5085464 <__swsetup_r>
 5083cf8:	d9c15117 	ldw	r7,1348(sp)
 5083cfc:	103dee26 	beq	r2,zero,50834b8 <___vfprintf_internal_r+0x70>
 5083d00:	003f8c06 	br	5083b34 <___vfprintf_internal_r+0x6ec>
 5083d04:	d9014217 	ldw	r4,1288(sp)
 5083d08:	d9414317 	ldw	r5,1292(sp)
 5083d0c:	000d883a 	mov	r6,zero
 5083d10:	000f883a 	mov	r7,zero
 5083d14:	508be600 	call	508be60 <__eqdf2>
 5083d18:	1000f21e 	bne	r2,zero,50840e4 <___vfprintf_internal_r+0xc9c>
 5083d1c:	00814374 	movhi	r2,1293
 5083d20:	10ad2804 	addi	r2,r2,-19296
 5083d24:	94800044 	addi	r18,r18,1
 5083d28:	8c400044 	addi	r17,r17,1
 5083d2c:	a8800015 	stw	r2,0(r21)
 5083d30:	00c00044 	movi	r3,1
 5083d34:	008001c4 	movi	r2,7
 5083d38:	a8c00115 	stw	r3,4(r21)
 5083d3c:	dc800e15 	stw	r18,56(sp)
 5083d40:	dc400d15 	stw	r17,52(sp)
 5083d44:	1442fa16 	blt	r2,r17,5084930 <___vfprintf_internal_r+0x14e8>
 5083d48:	a8c00204 	addi	r3,r21,8
 5083d4c:	d8800517 	ldw	r2,20(sp)
 5083d50:	d9014717 	ldw	r4,1308(sp)
 5083d54:	11015c0e 	bge	r2,r4,50842c8 <___vfprintf_internal_r+0xe80>
 5083d58:	dc400d17 	ldw	r17,52(sp)
 5083d5c:	d9814917 	ldw	r6,1316(sp)
 5083d60:	00800044 	movi	r2,1
 5083d64:	94800044 	addi	r18,r18,1
 5083d68:	8c400044 	addi	r17,r17,1
 5083d6c:	18800115 	stw	r2,4(r3)
 5083d70:	008001c4 	movi	r2,7
 5083d74:	19800015 	stw	r6,0(r3)
 5083d78:	dc800e15 	stw	r18,56(sp)
 5083d7c:	dc400d15 	stw	r17,52(sp)
 5083d80:	14431016 	blt	r2,r17,50849c4 <___vfprintf_internal_r+0x157c>
 5083d84:	18c00204 	addi	r3,r3,8
 5083d88:	d8814717 	ldw	r2,1308(sp)
 5083d8c:	143fffc4 	addi	r16,r2,-1
 5083d90:	043f2b0e 	bge	zero,r16,5083a40 <___vfprintf_internal_r+0x5f8>
 5083d94:	00800404 	movi	r2,16
 5083d98:	1402a20e 	bge	r2,r16,5084824 <___vfprintf_internal_r+0x13dc>
 5083d9c:	dc400d17 	ldw	r17,52(sp)
 5083da0:	1027883a 	mov	r19,r2
 5083da4:	07014374 	movhi	fp,1293
 5083da8:	e72d2884 	addi	fp,fp,-19294
 5083dac:	050001c4 	movi	r20,7
 5083db0:	00000306 	br	5083dc0 <___vfprintf_internal_r+0x978>
 5083db4:	18c00204 	addi	r3,r3,8
 5083db8:	843ffc04 	addi	r16,r16,-16
 5083dbc:	9c029c0e 	bge	r19,r16,5084830 <___vfprintf_internal_r+0x13e8>
 5083dc0:	94800404 	addi	r18,r18,16
 5083dc4:	8c400044 	addi	r17,r17,1
 5083dc8:	1f000015 	stw	fp,0(r3)
 5083dcc:	1cc00115 	stw	r19,4(r3)
 5083dd0:	dc800e15 	stw	r18,56(sp)
 5083dd4:	dc400d15 	stw	r17,52(sp)
 5083dd8:	a47ff60e 	bge	r20,r17,5083db4 <___vfprintf_internal_r+0x96c>
 5083ddc:	d9014f17 	ldw	r4,1340(sp)
 5083de0:	b00b883a 	mov	r5,r22
 5083de4:	d9800c04 	addi	r6,sp,48
 5083de8:	50833f00 	call	50833f0 <__sprint_r>
 5083dec:	103f4e1e 	bne	r2,zero,5083b28 <___vfprintf_internal_r+0x6e0>
 5083df0:	dc800e17 	ldw	r18,56(sp)
 5083df4:	dc400d17 	ldw	r17,52(sp)
 5083df8:	d8c01904 	addi	r3,sp,100
 5083dfc:	003fee06 	br	5083db8 <___vfprintf_internal_r+0x970>
 5083e00:	d8802c0b 	ldhu	r2,176(sp)
 5083e04:	00ffffc4 	movi	r3,-1
 5083e08:	d8c14b15 	stw	r3,1324(sp)
 5083e0c:	1080100c 	andi	r2,r2,64
 5083e10:	103dcc1e 	bne	r2,zero,5083544 <___vfprintf_internal_r+0xfc>
 5083e14:	003dce06 	br	5083550 <___vfprintf_internal_r+0x108>
 5083e18:	d9014f17 	ldw	r4,1340(sp)
 5083e1c:	b00b883a 	mov	r5,r22
 5083e20:	d9800c04 	addi	r6,sp,48
 5083e24:	50833f00 	call	50833f0 <__sprint_r>
 5083e28:	103f3f1e 	bne	r2,zero,5083b28 <___vfprintf_internal_r+0x6e0>
 5083e2c:	dc800e17 	ldw	r18,56(sp)
 5083e30:	003f2e06 	br	5083aec <___vfprintf_internal_r+0x6a4>
 5083e34:	d9414c17 	ldw	r5,1328(sp)
 5083e38:	29400414 	ori	r5,r5,16
 5083e3c:	d9414c15 	stw	r5,1328(sp)
 5083e40:	d9814c17 	ldw	r6,1328(sp)
 5083e44:	3080080c 	andi	r2,r6,32
 5083e48:	10014f1e 	bne	r2,zero,5084388 <___vfprintf_internal_r+0xf40>
 5083e4c:	d8c14c17 	ldw	r3,1328(sp)
 5083e50:	1880040c 	andi	r2,r3,16
 5083e54:	1002ea1e 	bne	r2,zero,5084a00 <___vfprintf_internal_r+0x15b8>
 5083e58:	d9014c17 	ldw	r4,1328(sp)
 5083e5c:	2080100c 	andi	r2,r4,64
 5083e60:	1002e726 	beq	r2,zero,5084a00 <___vfprintf_internal_r+0x15b8>
 5083e64:	3880000f 	ldh	r2,0(r7)
 5083e68:	39c00104 	addi	r7,r7,4
 5083e6c:	d9c14015 	stw	r7,1280(sp)
 5083e70:	1023d7fa 	srai	r17,r2,31
 5083e74:	1021883a 	mov	r16,r2
 5083e78:	88037216 	blt	r17,zero,5084c44 <___vfprintf_internal_r+0x17fc>
 5083e7c:	01000044 	movi	r4,1
 5083e80:	98000416 	blt	r19,zero,5083e94 <___vfprintf_internal_r+0xa4c>
 5083e84:	d8c14c17 	ldw	r3,1328(sp)
 5083e88:	00bfdfc4 	movi	r2,-129
 5083e8c:	1886703a 	and	r3,r3,r2
 5083e90:	d8c14c15 	stw	r3,1328(sp)
 5083e94:	8444b03a 	or	r2,r16,r17
 5083e98:	1002261e 	bne	r2,zero,5084734 <___vfprintf_internal_r+0x12ec>
 5083e9c:	9802251e 	bne	r19,zero,5084734 <___vfprintf_internal_r+0x12ec>
 5083ea0:	20803fcc 	andi	r2,r4,255
 5083ea4:	10029b26 	beq	r2,zero,5084914 <___vfprintf_internal_r+0x14cc>
 5083ea8:	d8c01904 	addi	r3,sp,100
 5083eac:	dd000f04 	addi	r20,sp,60
 5083eb0:	d8c14115 	stw	r3,1284(sp)
 5083eb4:	d8c14117 	ldw	r3,1284(sp)
 5083eb8:	dcc14515 	stw	r19,1300(sp)
 5083ebc:	a0c5c83a 	sub	r2,r20,r3
 5083ec0:	11c00a04 	addi	r7,r2,40
 5083ec4:	99c0010e 	bge	r19,r7,5083ecc <___vfprintf_internal_r+0xa84>
 5083ec8:	d9c14515 	stw	r7,1300(sp)
 5083ecc:	dcc14615 	stw	r19,1304(sp)
 5083ed0:	d8800407 	ldb	r2,16(sp)
 5083ed4:	103e4c26 	beq	r2,zero,5083808 <___vfprintf_internal_r+0x3c0>
 5083ed8:	d8814517 	ldw	r2,1300(sp)
 5083edc:	10800044 	addi	r2,r2,1
 5083ee0:	d8814515 	stw	r2,1300(sp)
 5083ee4:	003e4806 	br	5083808 <___vfprintf_internal_r+0x3c0>
 5083ee8:	d9814c17 	ldw	r6,1328(sp)
 5083eec:	31800414 	ori	r6,r6,16
 5083ef0:	d9814c15 	stw	r6,1328(sp)
 5083ef4:	d8c14c17 	ldw	r3,1328(sp)
 5083ef8:	1880080c 	andi	r2,r3,32
 5083efc:	1001271e 	bne	r2,zero,508439c <___vfprintf_internal_r+0xf54>
 5083f00:	d9414c17 	ldw	r5,1328(sp)
 5083f04:	2880040c 	andi	r2,r5,16
 5083f08:	1002b61e 	bne	r2,zero,50849e4 <___vfprintf_internal_r+0x159c>
 5083f0c:	d9814c17 	ldw	r6,1328(sp)
 5083f10:	3080100c 	andi	r2,r6,64
 5083f14:	1002b326 	beq	r2,zero,50849e4 <___vfprintf_internal_r+0x159c>
 5083f18:	3c00000b 	ldhu	r16,0(r7)
 5083f1c:	0009883a 	mov	r4,zero
 5083f20:	39c00104 	addi	r7,r7,4
 5083f24:	0023883a 	mov	r17,zero
 5083f28:	d9c14015 	stw	r7,1280(sp)
 5083f2c:	d8000405 	stb	zero,16(sp)
 5083f30:	003fd306 	br	5083e80 <___vfprintf_internal_r+0xa38>
 5083f34:	d9014c17 	ldw	r4,1328(sp)
 5083f38:	21000414 	ori	r4,r4,16
 5083f3c:	d9014c15 	stw	r4,1328(sp)
 5083f40:	d9414c17 	ldw	r5,1328(sp)
 5083f44:	2880080c 	andi	r2,r5,32
 5083f48:	1001081e 	bne	r2,zero,508436c <___vfprintf_internal_r+0xf24>
 5083f4c:	d8c14c17 	ldw	r3,1328(sp)
 5083f50:	1880040c 	andi	r2,r3,16
 5083f54:	1002b01e 	bne	r2,zero,5084a18 <___vfprintf_internal_r+0x15d0>
 5083f58:	d9014c17 	ldw	r4,1328(sp)
 5083f5c:	2080100c 	andi	r2,r4,64
 5083f60:	1002ad26 	beq	r2,zero,5084a18 <___vfprintf_internal_r+0x15d0>
 5083f64:	3c00000b 	ldhu	r16,0(r7)
 5083f68:	01000044 	movi	r4,1
 5083f6c:	39c00104 	addi	r7,r7,4
 5083f70:	0023883a 	mov	r17,zero
 5083f74:	d9c14015 	stw	r7,1280(sp)
 5083f78:	d8000405 	stb	zero,16(sp)
 5083f7c:	003fc006 	br	5083e80 <___vfprintf_internal_r+0xa38>
 5083f80:	d9014f17 	ldw	r4,1340(sp)
 5083f84:	b00b883a 	mov	r5,r22
 5083f88:	d9800c04 	addi	r6,sp,48
 5083f8c:	50833f00 	call	50833f0 <__sprint_r>
 5083f90:	103ee51e 	bne	r2,zero,5083b28 <___vfprintf_internal_r+0x6e0>
 5083f94:	dc800e17 	ldw	r18,56(sp)
 5083f98:	d8c01904 	addi	r3,sp,100
 5083f9c:	d9814c17 	ldw	r6,1328(sp)
 5083fa0:	3080004c 	andi	r2,r6,1
 5083fa4:	1005003a 	cmpeq	r2,r2,zero
 5083fa8:	103ea51e 	bne	r2,zero,5083a40 <___vfprintf_internal_r+0x5f8>
 5083fac:	00800044 	movi	r2,1
 5083fb0:	dc400d17 	ldw	r17,52(sp)
 5083fb4:	18800115 	stw	r2,4(r3)
 5083fb8:	d8814917 	ldw	r2,1316(sp)
 5083fbc:	94800044 	addi	r18,r18,1
 5083fc0:	8c400044 	addi	r17,r17,1
 5083fc4:	18800015 	stw	r2,0(r3)
 5083fc8:	008001c4 	movi	r2,7
 5083fcc:	dc800e15 	stw	r18,56(sp)
 5083fd0:	dc400d15 	stw	r17,52(sp)
 5083fd4:	14421e0e 	bge	r2,r17,5084850 <___vfprintf_internal_r+0x1408>
 5083fd8:	d9014f17 	ldw	r4,1340(sp)
 5083fdc:	b00b883a 	mov	r5,r22
 5083fe0:	d9800c04 	addi	r6,sp,48
 5083fe4:	50833f00 	call	50833f0 <__sprint_r>
 5083fe8:	103ecf1e 	bne	r2,zero,5083b28 <___vfprintf_internal_r+0x6e0>
 5083fec:	dc800e17 	ldw	r18,56(sp)
 5083ff0:	d8c01904 	addi	r3,sp,100
 5083ff4:	003e9206 	br	5083a40 <___vfprintf_internal_r+0x5f8>
 5083ff8:	d9014f17 	ldw	r4,1340(sp)
 5083ffc:	b00b883a 	mov	r5,r22
 5084000:	d9800c04 	addi	r6,sp,48
 5084004:	50833f00 	call	50833f0 <__sprint_r>
 5084008:	103ec026 	beq	r2,zero,5083b0c <___vfprintf_internal_r+0x6c4>
 508400c:	003ec606 	br	5083b28 <___vfprintf_internal_r+0x6e0>
 5084010:	d9014f17 	ldw	r4,1340(sp)
 5084014:	b00b883a 	mov	r5,r22
 5084018:	d9800c04 	addi	r6,sp,48
 508401c:	d9c15115 	stw	r7,1348(sp)
 5084020:	50833f00 	call	50833f0 <__sprint_r>
 5084024:	d9c15117 	ldw	r7,1348(sp)
 5084028:	103ebf1e 	bne	r2,zero,5083b28 <___vfprintf_internal_r+0x6e0>
 508402c:	dc800e17 	ldw	r18,56(sp)
 5084030:	dc400d17 	ldw	r17,52(sp)
 5084034:	dd401904 	addi	r21,sp,100
 5084038:	003e7406 	br	5083a0c <___vfprintf_internal_r+0x5c4>
 508403c:	d9014f17 	ldw	r4,1340(sp)
 5084040:	b00b883a 	mov	r5,r22
 5084044:	d9800c04 	addi	r6,sp,48
 5084048:	d9c15115 	stw	r7,1348(sp)
 508404c:	50833f00 	call	50833f0 <__sprint_r>
 5084050:	d9c15117 	ldw	r7,1348(sp)
 5084054:	103eb41e 	bne	r2,zero,5083b28 <___vfprintf_internal_r+0x6e0>
 5084058:	dd401904 	addi	r21,sp,100
 508405c:	003d6d06 	br	5083614 <___vfprintf_internal_r+0x1cc>
 5084060:	d9014f17 	ldw	r4,1340(sp)
 5084064:	b00b883a 	mov	r5,r22
 5084068:	d9800c04 	addi	r6,sp,48
 508406c:	d9c15115 	stw	r7,1348(sp)
 5084070:	50833f00 	call	50833f0 <__sprint_r>
 5084074:	d9c15117 	ldw	r7,1348(sp)
 5084078:	103eab1e 	bne	r2,zero,5083b28 <___vfprintf_internal_r+0x6e0>
 508407c:	dc800e17 	ldw	r18,56(sp)
 5084080:	dc400d17 	ldw	r17,52(sp)
 5084084:	dd401904 	addi	r21,sp,100
 5084088:	003e3406 	br	508395c <___vfprintf_internal_r+0x514>
 508408c:	d9014f17 	ldw	r4,1340(sp)
 5084090:	b00b883a 	mov	r5,r22
 5084094:	d9800c04 	addi	r6,sp,48
 5084098:	d9c15115 	stw	r7,1348(sp)
 508409c:	50833f00 	call	50833f0 <__sprint_r>
 50840a0:	d9c15117 	ldw	r7,1348(sp)
 50840a4:	103ea01e 	bne	r2,zero,5083b28 <___vfprintf_internal_r+0x6e0>
 50840a8:	dc800e17 	ldw	r18,56(sp)
 50840ac:	dc400d17 	ldw	r17,52(sp)
 50840b0:	dd401904 	addi	r21,sp,100
 50840b4:	003e1c06 	br	5083928 <___vfprintf_internal_r+0x4e0>
 50840b8:	d9014f17 	ldw	r4,1340(sp)
 50840bc:	b00b883a 	mov	r5,r22
 50840c0:	d9800c04 	addi	r6,sp,48
 50840c4:	d9c15115 	stw	r7,1348(sp)
 50840c8:	50833f00 	call	50833f0 <__sprint_r>
 50840cc:	d9c15117 	ldw	r7,1348(sp)
 50840d0:	103e951e 	bne	r2,zero,5083b28 <___vfprintf_internal_r+0x6e0>
 50840d4:	dc800e17 	ldw	r18,56(sp)
 50840d8:	dc400d17 	ldw	r17,52(sp)
 50840dc:	dd401904 	addi	r21,sp,100
 50840e0:	003e0406 	br	50838f4 <___vfprintf_internal_r+0x4ac>
 50840e4:	d9000517 	ldw	r4,20(sp)
 50840e8:	0102520e 	bge	zero,r4,5084a34 <___vfprintf_internal_r+0x15ec>
 50840ec:	d9814717 	ldw	r6,1308(sp)
 50840f0:	21807a16 	blt	r4,r6,50842dc <___vfprintf_internal_r+0xe94>
 50840f4:	d8814117 	ldw	r2,1284(sp)
 50840f8:	91a5883a 	add	r18,r18,r6
 50840fc:	8c400044 	addi	r17,r17,1
 5084100:	a8800015 	stw	r2,0(r21)
 5084104:	008001c4 	movi	r2,7
 5084108:	a9800115 	stw	r6,4(r21)
 508410c:	dc800e15 	stw	r18,56(sp)
 5084110:	dc400d15 	stw	r17,52(sp)
 5084114:	1442f616 	blt	r2,r17,5084cf0 <___vfprintf_internal_r+0x18a8>
 5084118:	a8c00204 	addi	r3,r21,8
 508411c:	d9414717 	ldw	r5,1308(sp)
 5084120:	2161c83a 	sub	r16,r4,r5
 5084124:	043f9d0e 	bge	zero,r16,5083f9c <___vfprintf_internal_r+0xb54>
 5084128:	00800404 	movi	r2,16
 508412c:	1402130e 	bge	r2,r16,508497c <___vfprintf_internal_r+0x1534>
 5084130:	dc400d17 	ldw	r17,52(sp)
 5084134:	1027883a 	mov	r19,r2
 5084138:	07014374 	movhi	fp,1293
 508413c:	e72d2884 	addi	fp,fp,-19294
 5084140:	050001c4 	movi	r20,7
 5084144:	00000306 	br	5084154 <___vfprintf_internal_r+0xd0c>
 5084148:	18c00204 	addi	r3,r3,8
 508414c:	843ffc04 	addi	r16,r16,-16
 5084150:	9c020d0e 	bge	r19,r16,5084988 <___vfprintf_internal_r+0x1540>
 5084154:	94800404 	addi	r18,r18,16
 5084158:	8c400044 	addi	r17,r17,1
 508415c:	1f000015 	stw	fp,0(r3)
 5084160:	1cc00115 	stw	r19,4(r3)
 5084164:	dc800e15 	stw	r18,56(sp)
 5084168:	dc400d15 	stw	r17,52(sp)
 508416c:	a47ff60e 	bge	r20,r17,5084148 <___vfprintf_internal_r+0xd00>
 5084170:	d9014f17 	ldw	r4,1340(sp)
 5084174:	b00b883a 	mov	r5,r22
 5084178:	d9800c04 	addi	r6,sp,48
 508417c:	50833f00 	call	50833f0 <__sprint_r>
 5084180:	103e691e 	bne	r2,zero,5083b28 <___vfprintf_internal_r+0x6e0>
 5084184:	dc800e17 	ldw	r18,56(sp)
 5084188:	dc400d17 	ldw	r17,52(sp)
 508418c:	d8c01904 	addi	r3,sp,100
 5084190:	003fee06 	br	508414c <___vfprintf_internal_r+0xd04>
 5084194:	d8814717 	ldw	r2,1308(sp)
 5084198:	143fffc4 	addi	r16,r2,-1
 508419c:	043e970e 	bge	zero,r16,5083bfc <___vfprintf_internal_r+0x7b4>
 50841a0:	00800404 	movi	r2,16
 50841a4:	1400180e 	bge	r2,r16,5084208 <___vfprintf_internal_r+0xdc0>
 50841a8:	1029883a 	mov	r20,r2
 50841ac:	07014374 	movhi	fp,1293
 50841b0:	e72d2884 	addi	fp,fp,-19294
 50841b4:	054001c4 	movi	r21,7
 50841b8:	00000306 	br	50841c8 <___vfprintf_internal_r+0xd80>
 50841bc:	9cc00204 	addi	r19,r19,8
 50841c0:	843ffc04 	addi	r16,r16,-16
 50841c4:	a400120e 	bge	r20,r16,5084210 <___vfprintf_internal_r+0xdc8>
 50841c8:	94800404 	addi	r18,r18,16
 50841cc:	8c400044 	addi	r17,r17,1
 50841d0:	9f000015 	stw	fp,0(r19)
 50841d4:	9d000115 	stw	r20,4(r19)
 50841d8:	dc800e15 	stw	r18,56(sp)
 50841dc:	dc400d15 	stw	r17,52(sp)
 50841e0:	ac7ff60e 	bge	r21,r17,50841bc <___vfprintf_internal_r+0xd74>
 50841e4:	d9014f17 	ldw	r4,1340(sp)
 50841e8:	b00b883a 	mov	r5,r22
 50841ec:	d9800c04 	addi	r6,sp,48
 50841f0:	50833f00 	call	50833f0 <__sprint_r>
 50841f4:	103e4c1e 	bne	r2,zero,5083b28 <___vfprintf_internal_r+0x6e0>
 50841f8:	dc800e17 	ldw	r18,56(sp)
 50841fc:	dc400d17 	ldw	r17,52(sp)
 5084200:	dcc01904 	addi	r19,sp,100
 5084204:	003fee06 	br	50841c0 <___vfprintf_internal_r+0xd78>
 5084208:	07014374 	movhi	fp,1293
 508420c:	e72d2884 	addi	fp,fp,-19294
 5084210:	9425883a 	add	r18,r18,r16
 5084214:	8c400044 	addi	r17,r17,1
 5084218:	008001c4 	movi	r2,7
 508421c:	9f000015 	stw	fp,0(r19)
 5084220:	9c000115 	stw	r16,4(r19)
 5084224:	dc800e15 	stw	r18,56(sp)
 5084228:	dc400d15 	stw	r17,52(sp)
 508422c:	147e720e 	bge	r2,r17,5083bf8 <___vfprintf_internal_r+0x7b0>
 5084230:	d9014f17 	ldw	r4,1340(sp)
 5084234:	b00b883a 	mov	r5,r22
 5084238:	d9800c04 	addi	r6,sp,48
 508423c:	50833f00 	call	50833f0 <__sprint_r>
 5084240:	103e391e 	bne	r2,zero,5083b28 <___vfprintf_internal_r+0x6e0>
 5084244:	dc800e17 	ldw	r18,56(sp)
 5084248:	dc400d17 	ldw	r17,52(sp)
 508424c:	dcc01904 	addi	r19,sp,100
 5084250:	003e6a06 	br	5083bfc <___vfprintf_internal_r+0x7b4>
 5084254:	d9014f17 	ldw	r4,1340(sp)
 5084258:	b00b883a 	mov	r5,r22
 508425c:	d9800c04 	addi	r6,sp,48
 5084260:	d9c15115 	stw	r7,1348(sp)
 5084264:	50833f00 	call	50833f0 <__sprint_r>
 5084268:	d9c15117 	ldw	r7,1348(sp)
 508426c:	103e2e1e 	bne	r2,zero,5083b28 <___vfprintf_internal_r+0x6e0>
 5084270:	dc800e17 	ldw	r18,56(sp)
 5084274:	dc400d17 	ldw	r17,52(sp)
 5084278:	dd401904 	addi	r21,sp,100
 508427c:	003dba06 	br	5083968 <___vfprintf_internal_r+0x520>
 5084280:	d9014f17 	ldw	r4,1340(sp)
 5084284:	b00b883a 	mov	r5,r22
 5084288:	d9800c04 	addi	r6,sp,48
 508428c:	50833f00 	call	50833f0 <__sprint_r>
 5084290:	103e251e 	bne	r2,zero,5083b28 <___vfprintf_internal_r+0x6e0>
 5084294:	dc800e17 	ldw	r18,56(sp)
 5084298:	dc400d17 	ldw	r17,52(sp)
 508429c:	dcc01904 	addi	r19,sp,100
 50842a0:	003e4206 	br	5083bac <___vfprintf_internal_r+0x764>
 50842a4:	d9014f17 	ldw	r4,1340(sp)
 50842a8:	b00b883a 	mov	r5,r22
 50842ac:	d9800c04 	addi	r6,sp,48
 50842b0:	50833f00 	call	50833f0 <__sprint_r>
 50842b4:	103e1c1e 	bne	r2,zero,5083b28 <___vfprintf_internal_r+0x6e0>
 50842b8:	dc800e17 	ldw	r18,56(sp)
 50842bc:	dc400d17 	ldw	r17,52(sp)
 50842c0:	d8c01904 	addi	r3,sp,100
 50842c4:	003e2e06 	br	5083b80 <___vfprintf_internal_r+0x738>
 50842c8:	d9414c17 	ldw	r5,1328(sp)
 50842cc:	2880004c 	andi	r2,r5,1
 50842d0:	1005003a 	cmpeq	r2,r2,zero
 50842d4:	103dda1e 	bne	r2,zero,5083a40 <___vfprintf_internal_r+0x5f8>
 50842d8:	003e9f06 	br	5083d58 <___vfprintf_internal_r+0x910>
 50842dc:	d8c14117 	ldw	r3,1284(sp)
 50842e0:	9125883a 	add	r18,r18,r4
 50842e4:	8c400044 	addi	r17,r17,1
 50842e8:	008001c4 	movi	r2,7
 50842ec:	a8c00015 	stw	r3,0(r21)
 50842f0:	a9000115 	stw	r4,4(r21)
 50842f4:	dc800e15 	stw	r18,56(sp)
 50842f8:	dc400d15 	stw	r17,52(sp)
 50842fc:	14426616 	blt	r2,r17,5084c98 <___vfprintf_internal_r+0x1850>
 5084300:	a8c00204 	addi	r3,r21,8
 5084304:	d9414917 	ldw	r5,1316(sp)
 5084308:	00800044 	movi	r2,1
 508430c:	94800044 	addi	r18,r18,1
 5084310:	8c400044 	addi	r17,r17,1
 5084314:	18800115 	stw	r2,4(r3)
 5084318:	008001c4 	movi	r2,7
 508431c:	19400015 	stw	r5,0(r3)
 5084320:	dc800e15 	stw	r18,56(sp)
 5084324:	dc400d15 	stw	r17,52(sp)
 5084328:	2021883a 	mov	r16,r4
 508432c:	14425016 	blt	r2,r17,5084c70 <___vfprintf_internal_r+0x1828>
 5084330:	19400204 	addi	r5,r3,8
 5084334:	d9814717 	ldw	r6,1308(sp)
 5084338:	8c400044 	addi	r17,r17,1
 508433c:	dc400d15 	stw	r17,52(sp)
 5084340:	3107c83a 	sub	r3,r6,r4
 5084344:	d9014117 	ldw	r4,1284(sp)
 5084348:	90e5883a 	add	r18,r18,r3
 508434c:	28c00115 	stw	r3,4(r5)
 5084350:	8105883a 	add	r2,r16,r4
 5084354:	28800015 	stw	r2,0(r5)
 5084358:	008001c4 	movi	r2,7
 508435c:	dc800e15 	stw	r18,56(sp)
 5084360:	147f1d16 	blt	r2,r17,5083fd8 <___vfprintf_internal_r+0xb90>
 5084364:	28c00204 	addi	r3,r5,8
 5084368:	003db506 	br	5083a40 <___vfprintf_internal_r+0x5f8>
 508436c:	3c000017 	ldw	r16,0(r7)
 5084370:	3c400117 	ldw	r17,4(r7)
 5084374:	39800204 	addi	r6,r7,8
 5084378:	01000044 	movi	r4,1
 508437c:	d9814015 	stw	r6,1280(sp)
 5084380:	d8000405 	stb	zero,16(sp)
 5084384:	003ebe06 	br	5083e80 <___vfprintf_internal_r+0xa38>
 5084388:	3c000017 	ldw	r16,0(r7)
 508438c:	3c400117 	ldw	r17,4(r7)
 5084390:	38800204 	addi	r2,r7,8
 5084394:	d8814015 	stw	r2,1280(sp)
 5084398:	003eb706 	br	5083e78 <___vfprintf_internal_r+0xa30>
 508439c:	3c000017 	ldw	r16,0(r7)
 50843a0:	3c400117 	ldw	r17,4(r7)
 50843a4:	39000204 	addi	r4,r7,8
 50843a8:	d9014015 	stw	r4,1280(sp)
 50843ac:	0009883a 	mov	r4,zero
 50843b0:	d8000405 	stb	zero,16(sp)
 50843b4:	003eb206 	br	5083e80 <___vfprintf_internal_r+0xa38>
 50843b8:	38c00017 	ldw	r3,0(r7)
 50843bc:	39c00104 	addi	r7,r7,4
 50843c0:	d8c14a15 	stw	r3,1320(sp)
 50843c4:	1800d10e 	bge	r3,zero,508470c <___vfprintf_internal_r+0x12c4>
 50843c8:	00c7c83a 	sub	r3,zero,r3
 50843cc:	d8c14a15 	stw	r3,1320(sp)
 50843d0:	d9014c17 	ldw	r4,1328(sp)
 50843d4:	b8c00007 	ldb	r3,0(r23)
 50843d8:	21000114 	ori	r4,r4,4
 50843dc:	d9014c15 	stw	r4,1328(sp)
 50843e0:	003c9806 	br	5083644 <___vfprintf_internal_r+0x1fc>
 50843e4:	d9814c17 	ldw	r6,1328(sp)
 50843e8:	3080080c 	andi	r2,r6,32
 50843ec:	1001f026 	beq	r2,zero,5084bb0 <___vfprintf_internal_r+0x1768>
 50843f0:	d9014b17 	ldw	r4,1324(sp)
 50843f4:	38800017 	ldw	r2,0(r7)
 50843f8:	39c00104 	addi	r7,r7,4
 50843fc:	d9c14015 	stw	r7,1280(sp)
 5084400:	2007d7fa 	srai	r3,r4,31
 5084404:	d9c14017 	ldw	r7,1280(sp)
 5084408:	11000015 	stw	r4,0(r2)
 508440c:	10c00115 	stw	r3,4(r2)
 5084410:	003c6906 	br	50835b8 <___vfprintf_internal_r+0x170>
 5084414:	b8c00007 	ldb	r3,0(r23)
 5084418:	00801b04 	movi	r2,108
 508441c:	18824f26 	beq	r3,r2,5084d5c <___vfprintf_internal_r+0x1914>
 5084420:	d9414c17 	ldw	r5,1328(sp)
 5084424:	29400414 	ori	r5,r5,16
 5084428:	d9414c15 	stw	r5,1328(sp)
 508442c:	003c8506 	br	5083644 <___vfprintf_internal_r+0x1fc>
 5084430:	d9814c17 	ldw	r6,1328(sp)
 5084434:	b8c00007 	ldb	r3,0(r23)
 5084438:	31800814 	ori	r6,r6,32
 508443c:	d9814c15 	stw	r6,1328(sp)
 5084440:	003c8006 	br	5083644 <___vfprintf_internal_r+0x1fc>
 5084444:	d8814c17 	ldw	r2,1328(sp)
 5084448:	3c000017 	ldw	r16,0(r7)
 508444c:	00c01e04 	movi	r3,120
 5084450:	10800094 	ori	r2,r2,2
 5084454:	d8814c15 	stw	r2,1328(sp)
 5084458:	39c00104 	addi	r7,r7,4
 508445c:	01414374 	movhi	r5,1293
 5084460:	296d1104 	addi	r5,r5,-19388
 5084464:	00800c04 	movi	r2,48
 5084468:	0023883a 	mov	r17,zero
 508446c:	01000084 	movi	r4,2
 5084470:	d9c14015 	stw	r7,1280(sp)
 5084474:	d8c14d15 	stw	r3,1332(sp)
 5084478:	d9414415 	stw	r5,1296(sp)
 508447c:	d8800445 	stb	r2,17(sp)
 5084480:	d8c00485 	stb	r3,18(sp)
 5084484:	d8000405 	stb	zero,16(sp)
 5084488:	003e7d06 	br	5083e80 <___vfprintf_internal_r+0xa38>
 508448c:	d8814c17 	ldw	r2,1328(sp)
 5084490:	b8c00007 	ldb	r3,0(r23)
 5084494:	10801014 	ori	r2,r2,64
 5084498:	d8814c15 	stw	r2,1328(sp)
 508449c:	003c6906 	br	5083644 <___vfprintf_internal_r+0x1fc>
 50844a0:	d9414c17 	ldw	r5,1328(sp)
 50844a4:	2880020c 	andi	r2,r5,8
 50844a8:	1001df26 	beq	r2,zero,5084c28 <___vfprintf_internal_r+0x17e0>
 50844ac:	39800017 	ldw	r6,0(r7)
 50844b0:	38800204 	addi	r2,r7,8
 50844b4:	d8814015 	stw	r2,1280(sp)
 50844b8:	d9814215 	stw	r6,1288(sp)
 50844bc:	39c00117 	ldw	r7,4(r7)
 50844c0:	d9c14315 	stw	r7,1292(sp)
 50844c4:	d9014217 	ldw	r4,1288(sp)
 50844c8:	d9414317 	ldw	r5,1292(sp)
 50844cc:	508a0480 	call	508a048 <__isinfd>
 50844d0:	10021726 	beq	r2,zero,5084d30 <___vfprintf_internal_r+0x18e8>
 50844d4:	d9014217 	ldw	r4,1288(sp)
 50844d8:	d9414317 	ldw	r5,1292(sp)
 50844dc:	000d883a 	mov	r6,zero
 50844e0:	000f883a 	mov	r7,zero
 50844e4:	508c0800 	call	508c080 <__ltdf2>
 50844e8:	1002ca16 	blt	r2,zero,5085014 <___vfprintf_internal_r+0x1bcc>
 50844ec:	d9414d17 	ldw	r5,1332(sp)
 50844f0:	008011c4 	movi	r2,71
 50844f4:	11420a16 	blt	r2,r5,5084d20 <___vfprintf_internal_r+0x18d8>
 50844f8:	01814374 	movhi	r6,1293
 50844fc:	31ad1604 	addi	r6,r6,-19368
 5084500:	d9814115 	stw	r6,1284(sp)
 5084504:	d9014c17 	ldw	r4,1328(sp)
 5084508:	00c000c4 	movi	r3,3
 508450c:	00bfdfc4 	movi	r2,-129
 5084510:	2088703a 	and	r4,r4,r2
 5084514:	180f883a 	mov	r7,r3
 5084518:	d8c14515 	stw	r3,1300(sp)
 508451c:	d9014c15 	stw	r4,1328(sp)
 5084520:	d8014615 	stw	zero,1304(sp)
 5084524:	003e6a06 	br	5083ed0 <___vfprintf_internal_r+0xa88>
 5084528:	38800017 	ldw	r2,0(r7)
 508452c:	00c00044 	movi	r3,1
 5084530:	39c00104 	addi	r7,r7,4
 5084534:	d9c14015 	stw	r7,1280(sp)
 5084538:	d9000f04 	addi	r4,sp,60
 508453c:	180f883a 	mov	r7,r3
 5084540:	d8c14515 	stw	r3,1300(sp)
 5084544:	d9014115 	stw	r4,1284(sp)
 5084548:	d8800f05 	stb	r2,60(sp)
 508454c:	d8000405 	stb	zero,16(sp)
 5084550:	003cac06 	br	5083804 <___vfprintf_internal_r+0x3bc>
 5084554:	01414374 	movhi	r5,1293
 5084558:	296d1c04 	addi	r5,r5,-19344
 508455c:	d9414415 	stw	r5,1296(sp)
 5084560:	d9814c17 	ldw	r6,1328(sp)
 5084564:	3080080c 	andi	r2,r6,32
 5084568:	1000f926 	beq	r2,zero,5084950 <___vfprintf_internal_r+0x1508>
 508456c:	3c000017 	ldw	r16,0(r7)
 5084570:	3c400117 	ldw	r17,4(r7)
 5084574:	38800204 	addi	r2,r7,8
 5084578:	d8814015 	stw	r2,1280(sp)
 508457c:	d9414c17 	ldw	r5,1328(sp)
 5084580:	2880004c 	andi	r2,r5,1
 5084584:	1005003a 	cmpeq	r2,r2,zero
 5084588:	1000b31e 	bne	r2,zero,5084858 <___vfprintf_internal_r+0x1410>
 508458c:	8444b03a 	or	r2,r16,r17
 5084590:	1000b126 	beq	r2,zero,5084858 <___vfprintf_internal_r+0x1410>
 5084594:	d9814d17 	ldw	r6,1332(sp)
 5084598:	29400094 	ori	r5,r5,2
 508459c:	00800c04 	movi	r2,48
 50845a0:	01000084 	movi	r4,2
 50845a4:	d9414c15 	stw	r5,1328(sp)
 50845a8:	d8800445 	stb	r2,17(sp)
 50845ac:	d9800485 	stb	r6,18(sp)
 50845b0:	d8000405 	stb	zero,16(sp)
 50845b4:	003e3206 	br	5083e80 <___vfprintf_internal_r+0xa38>
 50845b8:	01814374 	movhi	r6,1293
 50845bc:	31ad1104 	addi	r6,r6,-19388
 50845c0:	d9814415 	stw	r6,1296(sp)
 50845c4:	003fe606 	br	5084560 <___vfprintf_internal_r+0x1118>
 50845c8:	00800ac4 	movi	r2,43
 50845cc:	d8800405 	stb	r2,16(sp)
 50845d0:	b8c00007 	ldb	r3,0(r23)
 50845d4:	003c1b06 	br	5083644 <___vfprintf_internal_r+0x1fc>
 50845d8:	d8814c17 	ldw	r2,1328(sp)
 50845dc:	b8c00007 	ldb	r3,0(r23)
 50845e0:	10800054 	ori	r2,r2,1
 50845e4:	d8814c15 	stw	r2,1328(sp)
 50845e8:	003c1606 	br	5083644 <___vfprintf_internal_r+0x1fc>
 50845ec:	d8800407 	ldb	r2,16(sp)
 50845f0:	1000461e 	bne	r2,zero,508470c <___vfprintf_internal_r+0x12c4>
 50845f4:	00800804 	movi	r2,32
 50845f8:	d8800405 	stb	r2,16(sp)
 50845fc:	b8c00007 	ldb	r3,0(r23)
 5084600:	003c1006 	br	5083644 <___vfprintf_internal_r+0x1fc>
 5084604:	d9814c17 	ldw	r6,1328(sp)
 5084608:	b8c00007 	ldb	r3,0(r23)
 508460c:	31800214 	ori	r6,r6,8
 5084610:	d9814c15 	stw	r6,1328(sp)
 5084614:	003c0b06 	br	5083644 <___vfprintf_internal_r+0x1fc>
 5084618:	0007883a 	mov	r3,zero
 508461c:	01000244 	movi	r4,9
 5084620:	188002a4 	muli	r2,r3,10
 5084624:	b8c00007 	ldb	r3,0(r23)
 5084628:	d9814d17 	ldw	r6,1332(sp)
 508462c:	bdc00044 	addi	r23,r23,1
 5084630:	d8c14d15 	stw	r3,1332(sp)
 5084634:	d9414d17 	ldw	r5,1332(sp)
 5084638:	3085883a 	add	r2,r6,r2
 508463c:	10fff404 	addi	r3,r2,-48
 5084640:	28bff404 	addi	r2,r5,-48
 5084644:	20bff62e 	bgeu	r4,r2,5084620 <___vfprintf_internal_r+0x11d8>
 5084648:	d8c14a15 	stw	r3,1320(sp)
 508464c:	003bff06 	br	508364c <___vfprintf_internal_r+0x204>
 5084650:	d9414c17 	ldw	r5,1328(sp)
 5084654:	b8c00007 	ldb	r3,0(r23)
 5084658:	29402014 	ori	r5,r5,128
 508465c:	d9414c15 	stw	r5,1328(sp)
 5084660:	003bf806 	br	5083644 <___vfprintf_internal_r+0x1fc>
 5084664:	b8c00007 	ldb	r3,0(r23)
 5084668:	00800a84 	movi	r2,42
 508466c:	bdc00044 	addi	r23,r23,1
 5084670:	18831526 	beq	r3,r2,50852c8 <___vfprintf_internal_r+0x1e80>
 5084674:	d8c14d15 	stw	r3,1332(sp)
 5084678:	18bff404 	addi	r2,r3,-48
 508467c:	00c00244 	movi	r3,9
 5084680:	18827836 	bltu	r3,r2,5085064 <___vfprintf_internal_r+0x1c1c>
 5084684:	000d883a 	mov	r6,zero
 5084688:	308002a4 	muli	r2,r6,10
 508468c:	b9800007 	ldb	r6,0(r23)
 5084690:	d9414d17 	ldw	r5,1332(sp)
 5084694:	bdc00044 	addi	r23,r23,1
 5084698:	d9814d15 	stw	r6,1332(sp)
 508469c:	d9014d17 	ldw	r4,1332(sp)
 50846a0:	1145883a 	add	r2,r2,r5
 50846a4:	11bff404 	addi	r6,r2,-48
 50846a8:	20bff404 	addi	r2,r4,-48
 50846ac:	18bff62e 	bgeu	r3,r2,5084688 <___vfprintf_internal_r+0x1240>
 50846b0:	3027883a 	mov	r19,r6
 50846b4:	303be50e 	bge	r6,zero,508364c <___vfprintf_internal_r+0x204>
 50846b8:	04ffffc4 	movi	r19,-1
 50846bc:	003be306 	br	508364c <___vfprintf_internal_r+0x204>
 50846c0:	d8000405 	stb	zero,16(sp)
 50846c4:	39800017 	ldw	r6,0(r7)
 50846c8:	39c00104 	addi	r7,r7,4
 50846cc:	d9c14015 	stw	r7,1280(sp)
 50846d0:	d9814115 	stw	r6,1284(sp)
 50846d4:	3001c926 	beq	r6,zero,5084dfc <___vfprintf_internal_r+0x19b4>
 50846d8:	98000e16 	blt	r19,zero,5084714 <___vfprintf_internal_r+0x12cc>
 50846dc:	d9014117 	ldw	r4,1284(sp)
 50846e0:	000b883a 	mov	r5,zero
 50846e4:	980d883a 	mov	r6,r19
 50846e8:	508879c0 	call	508879c <memchr>
 50846ec:	10025926 	beq	r2,zero,5085054 <___vfprintf_internal_r+0x1c0c>
 50846f0:	d8c14117 	ldw	r3,1284(sp)
 50846f4:	10cfc83a 	sub	r7,r2,r3
 50846f8:	99c19e16 	blt	r19,r7,5084d74 <___vfprintf_internal_r+0x192c>
 50846fc:	d9c14515 	stw	r7,1300(sp)
 5084700:	38000916 	blt	r7,zero,5084728 <___vfprintf_internal_r+0x12e0>
 5084704:	d8014615 	stw	zero,1304(sp)
 5084708:	003df106 	br	5083ed0 <___vfprintf_internal_r+0xa88>
 508470c:	b8c00007 	ldb	r3,0(r23)
 5084710:	003bcc06 	br	5083644 <___vfprintf_internal_r+0x1fc>
 5084714:	d9014117 	ldw	r4,1284(sp)
 5084718:	50833740 	call	5083374 <strlen>
 508471c:	d8814515 	stw	r2,1300(sp)
 5084720:	100f883a 	mov	r7,r2
 5084724:	103ff70e 	bge	r2,zero,5084704 <___vfprintf_internal_r+0x12bc>
 5084728:	d8014515 	stw	zero,1300(sp)
 508472c:	d8014615 	stw	zero,1304(sp)
 5084730:	003de706 	br	5083ed0 <___vfprintf_internal_r+0xa88>
 5084734:	20c03fcc 	andi	r3,r4,255
 5084738:	00800044 	movi	r2,1
 508473c:	18802d26 	beq	r3,r2,50847f4 <___vfprintf_internal_r+0x13ac>
 5084740:	18800e36 	bltu	r3,r2,508477c <___vfprintf_internal_r+0x1334>
 5084744:	00800084 	movi	r2,2
 5084748:	1880fa26 	beq	r3,r2,5084b34 <___vfprintf_internal_r+0x16ec>
 508474c:	01014374 	movhi	r4,1293
 5084750:	212d2104 	addi	r4,r4,-19324
 5084754:	50833740 	call	5083374 <strlen>
 5084758:	100f883a 	mov	r7,r2
 508475c:	dcc14515 	stw	r19,1300(sp)
 5084760:	9880010e 	bge	r19,r2,5084768 <___vfprintf_internal_r+0x1320>
 5084764:	d8814515 	stw	r2,1300(sp)
 5084768:	00814374 	movhi	r2,1293
 508476c:	10ad2104 	addi	r2,r2,-19324
 5084770:	dcc14615 	stw	r19,1304(sp)
 5084774:	d8814115 	stw	r2,1284(sp)
 5084778:	003dd506 	br	5083ed0 <___vfprintf_internal_r+0xa88>
 508477c:	d9401904 	addi	r5,sp,100
 5084780:	dd000f04 	addi	r20,sp,60
 5084784:	d9414115 	stw	r5,1284(sp)
 5084788:	880a977a 	slli	r5,r17,29
 508478c:	d9814117 	ldw	r6,1284(sp)
 5084790:	8004d0fa 	srli	r2,r16,3
 5084794:	8806d0fa 	srli	r3,r17,3
 5084798:	810001cc 	andi	r4,r16,7
 508479c:	2884b03a 	or	r2,r5,r2
 50847a0:	31bfffc4 	addi	r6,r6,-1
 50847a4:	21000c04 	addi	r4,r4,48
 50847a8:	d9814115 	stw	r6,1284(sp)
 50847ac:	10cab03a 	or	r5,r2,r3
 50847b0:	31000005 	stb	r4,0(r6)
 50847b4:	1021883a 	mov	r16,r2
 50847b8:	1823883a 	mov	r17,r3
 50847bc:	283ff21e 	bne	r5,zero,5084788 <___vfprintf_internal_r+0x1340>
 50847c0:	d8c14c17 	ldw	r3,1328(sp)
 50847c4:	1880004c 	andi	r2,r3,1
 50847c8:	1005003a 	cmpeq	r2,r2,zero
 50847cc:	103db91e 	bne	r2,zero,5083eb4 <___vfprintf_internal_r+0xa6c>
 50847d0:	20803fcc 	andi	r2,r4,255
 50847d4:	1080201c 	xori	r2,r2,128
 50847d8:	10bfe004 	addi	r2,r2,-128
 50847dc:	00c00c04 	movi	r3,48
 50847e0:	10fdb426 	beq	r2,r3,5083eb4 <___vfprintf_internal_r+0xa6c>
 50847e4:	31bfffc4 	addi	r6,r6,-1
 50847e8:	d9814115 	stw	r6,1284(sp)
 50847ec:	30c00005 	stb	r3,0(r6)
 50847f0:	003db006 	br	5083eb4 <___vfprintf_internal_r+0xa6c>
 50847f4:	88800068 	cmpgeui	r2,r17,1
 50847f8:	10002c1e 	bne	r2,zero,50848ac <___vfprintf_internal_r+0x1464>
 50847fc:	8800021e 	bne	r17,zero,5084808 <___vfprintf_internal_r+0x13c0>
 5084800:	00800244 	movi	r2,9
 5084804:	14002936 	bltu	r2,r16,50848ac <___vfprintf_internal_r+0x1464>
 5084808:	d90018c4 	addi	r4,sp,99
 508480c:	dd000f04 	addi	r20,sp,60
 5084810:	d9014115 	stw	r4,1284(sp)
 5084814:	d9014117 	ldw	r4,1284(sp)
 5084818:	80800c04 	addi	r2,r16,48
 508481c:	20800005 	stb	r2,0(r4)
 5084820:	003da406 	br	5083eb4 <___vfprintf_internal_r+0xa6c>
 5084824:	dc400d17 	ldw	r17,52(sp)
 5084828:	07014374 	movhi	fp,1293
 508482c:	e72d2884 	addi	fp,fp,-19294
 5084830:	9425883a 	add	r18,r18,r16
 5084834:	8c400044 	addi	r17,r17,1
 5084838:	008001c4 	movi	r2,7
 508483c:	1f000015 	stw	fp,0(r3)
 5084840:	1c000115 	stw	r16,4(r3)
 5084844:	dc800e15 	stw	r18,56(sp)
 5084848:	dc400d15 	stw	r17,52(sp)
 508484c:	147de216 	blt	r2,r17,5083fd8 <___vfprintf_internal_r+0xb90>
 5084850:	18c00204 	addi	r3,r3,8
 5084854:	003c7a06 	br	5083a40 <___vfprintf_internal_r+0x5f8>
 5084858:	01000084 	movi	r4,2
 508485c:	d8000405 	stb	zero,16(sp)
 5084860:	003d8706 	br	5083e80 <___vfprintf_internal_r+0xa38>
 5084864:	d9814c17 	ldw	r6,1328(sp)
 5084868:	30c4703a 	and	r2,r6,r3
 508486c:	1005003a 	cmpeq	r2,r2,zero
 5084870:	103cb926 	beq	r2,zero,5083b58 <___vfprintf_internal_r+0x710>
 5084874:	d9014117 	ldw	r4,1284(sp)
 5084878:	94800044 	addi	r18,r18,1
 508487c:	8c400044 	addi	r17,r17,1
 5084880:	008001c4 	movi	r2,7
 5084884:	a9000015 	stw	r4,0(r21)
 5084888:	a8c00115 	stw	r3,4(r21)
